
main:     file format elf32-tradlittlemips


Disassembly of section .text:

a0800200 <_start>:
a0800200:	27bdffe0 	addiu	sp,sp,-32
a0800204:	afbf001c 	sw	ra,28(sp)
a0800208:	afbe0018 	sw	s8,24(sp)
a080020c:	03a0f021 	move	s8,sp
a0800210:	0c2000b0 	jal	a08002c0 <asm_start>
a0800214:	00000000 	nop
a0800218:	0c2002b0 	jal	a0800ac0 <init_pcb>
a080021c:	00000000 	nop
a0800220:	3c02a080 	lui	v0,0xa080
a0800224:	24445c80 	addiu	a0,v0,23680
a0800228:	0c200f66 	jal	a0803d98 <printk>
a080022c:	00000000 	nop
a0800230:	0c20059e 	jal	a0801678 <init_exception>
a0800234:	00000000 	nop
a0800238:	3c02a080 	lui	v0,0xa080
a080023c:	24445ca8 	addiu	a0,v0,23720
a0800240:	0c200f66 	jal	a0803d98 <printk>
a0800244:	00000000 	nop
a0800248:	0c2007dc 	jal	a0801f70 <init_system_futex>
a080024c:	00000000 	nop
a0800250:	3c02a080 	lui	v0,0xa080
a0800254:	24445ce4 	addiu	a0,v0,23780
a0800258:	0c200f66 	jal	a0803d98 <printk>
a080025c:	00000000 	nop
a0800260:	0c2005b7 	jal	a08016dc <init_syscall>
a0800264:	00000000 	nop
a0800268:	3c02a080 	lui	v0,0xa080
a080026c:	24445d10 	addiu	a0,v0,23824
a0800270:	0c200f66 	jal	a0803d98 <printk>
a0800274:	00000000 	nop
a0800278:	0c200693 	jal	a0801a4c <init_screen>
a080027c:	00000000 	nop
a0800280:	3c02a080 	lui	v0,0xa080
a0800284:	24445d40 	addiu	a0,v0,23872
a0800288:	0c200f66 	jal	a0803d98 <printk>
a080028c:	00000000 	nop
a0800290:	0c2000bd 	jal	a08002f4 <get_status>
a0800294:	00000000 	nop
a0800298:	afc20010 	sw	v0,16(s8)
a080029c:	8fc40010 	lw	a0,16(s8)
a08002a0:	0c2000c8 	jal	a0800320 <enable_int>
a08002a4:	00000000 	nop
a08002a8:	0c2000bd 	jal	a08002f4 <get_status>
a08002ac:	00000000 	nop
a08002b0:	afc20010 	sw	v0,16(s8)
a08002b4:	082000ad 	j	a08002b4 <_start+0xb4>
a08002b8:	00000000 	nop
a08002bc:	00000000 	nop

a08002c0 <asm_start>:
a08002c0:	40806000 	mtc0	zero,c0_sr
a08002c4:	00000000 	nop
a08002c8:	40809000 	mtc0	zero,c0_watchlo
a08002cc:	00000000 	nop
a08002d0:	40809800 	mtc0	zero,c0_watchhi
a08002d4:	00000000 	nop
a08002d8:	40088000 	mfc0	t0,c0_config
a08002dc:	2401fff8 	li	at,-8
a08002e0:	01014024 	and	t0,t0,at
a08002e4:	35080002 	ori	t0,t0,0x2
a08002e8:	40888000 	mtc0	t0,c0_config
a08002ec:	03e00008 	jr	ra
a08002f0:	00000000 	nop

a08002f4 <get_status>:
a08002f4:	40026000 	mfc0	v0,c0_sr
a08002f8:	03e00008 	jr	ra
a08002fc:	00000000 	nop

a0800300 <init_status>:
a0800300:	241a0000 	li	k0,0
a0800304:	3c1a3000 	lui	k0,0x3000
a0800308:	341bff00 	li	k1,0xff00
a080030c:	035bd021 	addu	k0,k0,k1
a0800310:	009a2025 	or	a0,a0,k0
a0800314:	40846000 	mtc0	a0,c0_sr
a0800318:	03e00008 	jr	ra
a080031c:	00000000 	nop

a0800320 <enable_int>:
a0800320:	241a0001 	li	k0,1
a0800324:	009a2025 	or	a0,a0,k0
a0800328:	40846000 	mtc0	a0,c0_sr
a080032c:	03e00008 	jr	ra
a0800330:	00000000 	nop

a0800334 <disable_int>:
a0800334:	341afffe 	li	k0,0xfffe
a0800338:	3c1bffff 	lui	k1,0xffff
a080033c:	035bd821 	addu	k1,k0,k1
a0800340:	009b2024 	and	a0,a0,k1
a0800344:	40846000 	mtc0	a0,c0_sr
a0800348:	03e00008 	jr	ra
a080034c:	00000000 	nop

a0800350 <copy_exception_entry>:
a0800350:	24080000 	li	t0,0
a0800354:	3c088000 	lui	t0,0x8000
a0800358:	25080180 	addiu	t0,t0,384
a080035c:	3c09a080 	lui	t1,0xa080
a0800360:	252905e4 	addiu	t1,t1,1508
a0800364:	3c0aa080 	lui	t2,0xa080
a0800368:	254a074c 	addiu	t2,t2,1868

a080036c <loop>:
a080036c:	8d2b0000 	lw	t3,0(t1)
a0800370:	ad0b0000 	sw	t3,0(t0)
a0800374:	25080004 	addiu	t0,t0,4
a0800378:	25290004 	addiu	t1,t1,4
a080037c:	152afffb 	bne	t1,t2,a080036c <loop>
a0800380:	00000000 	nop
a0800384:	03e00008 	jr	ra
a0800388:	00000000 	nop

a080038c <reset_timer>:
a080038c:	24080000 	li	t0,0
a0800390:	40884800 	mtc0	t0,c0_count
a0800394:	00000000 	nop
a0800398:	40845800 	mtc0	a0,c0_compare
a080039c:	03e00008 	jr	ra
a08003a0:	00000000 	nop

a08003a4 <set_timeslice>:
a08003a4:	40084800 	mfc0	t0,c0_count
a08003a8:	00000000 	nop
a08003ac:	01044021 	addu	t0,t0,a0
a08003b0:	40885800 	mtc0	t0,c0_compare
a08003b4:	03e00008 	jr	ra
a08003b8:	00000000 	nop

a08003bc <get_count>:
a08003bc:	40024800 	mfc0	v0,c0_count
a08003c0:	03e00008 	jr	ra
a08003c4:	00000000 	nop

a08003c8 <enable_preempt>:
a08003c8:	3c08a080 	lui	t0,0xa080
a08003cc:	25086598 	addiu	t0,t0,26008
a08003d0:	8d080000 	lw	t0,0(t0)
a08003d4:	8d090140 	lw	t1,320(t0)
a08003d8:	11200008 	beqz	t1,a08003fc <do_enable>
a08003dc:	00000000 	nop
a08003e0:	00000000 	nop
a08003e4:	2129ffff 	addi	t1,t1,-1
a08003e8:	11200004 	beqz	t1,a08003fc <do_enable>
a08003ec:	ad090140 	sw	t1,320(t0)
a08003f0:	03e00008 	jr	ra
a08003f4:	00000000 	nop
a08003f8:	00000000 	nop

a08003fc <do_enable>:
a08003fc:	201a0001 	addi	k0,zero,1
a0800400:	401b6000 	mfc0	k1,c0_sr
a0800404:	00000000 	nop
a0800408:	037ad825 	or	k1,k1,k0
a080040c:	409b6000 	mtc0	k1,c0_sr
a0800410:	03e00008 	jr	ra
a0800414:	00000000 	nop

a0800418 <disable_preempt>:
a0800418:	341afffe 	li	k0,0xfffe
a080041c:	3c1bffff 	lui	k1,0xffff
a0800420:	035bd821 	addu	k1,k0,k1
a0800424:	40096000 	mfc0	t1,c0_sr
a0800428:	00000000 	nop
a080042c:	013b4824 	and	t1,t1,k1
a0800430:	40896000 	mtc0	t1,c0_sr
a0800434:	3c08a080 	lui	t0,0xa080
a0800438:	25086598 	addiu	t0,t0,26008
a080043c:	8d080000 	lw	t0,0(t0)
a0800440:	8d090140 	lw	t1,320(t0)
a0800444:	21290001 	addi	t1,t1,1
a0800448:	03e00008 	jr	ra
a080044c:	ad090140 	sw	t1,320(t0)

a0800450 <do_scheduler>:
a0800450:	23bdfffc 	addi	sp,sp,-4
a0800454:	afa80000 	sw	t0,0(sp)
a0800458:	3c08a080 	lui	t0,0xa080
a080045c:	25086598 	addiu	t0,t0,26008
a0800460:	8d080000 	lw	t0,0(t0)
a0800464:	25080000 	addiu	t0,t0,0
a0800468:	ad000000 	sw	zero,0(t0)
a080046c:	ad010004 	sw	at,4(t0)
a0800470:	ad020008 	sw	v0,8(t0)
a0800474:	ad03000c 	sw	v1,12(t0)
a0800478:	ad040010 	sw	a0,16(t0)
a080047c:	ad050014 	sw	a1,20(t0)
a0800480:	ad060018 	sw	a2,24(t0)
a0800484:	ad07001c 	sw	a3,28(t0)
a0800488:	ad080020 	sw	t0,32(t0)
a080048c:	ad090024 	sw	t1,36(t0)
a0800490:	ad0a0028 	sw	t2,40(t0)
a0800494:	ad0b002c 	sw	t3,44(t0)
a0800498:	ad0c0030 	sw	t4,48(t0)
a080049c:	ad0d0034 	sw	t5,52(t0)
a08004a0:	ad0e0038 	sw	t6,56(t0)
a08004a4:	ad0f003c 	sw	t7,60(t0)
a08004a8:	ad100040 	sw	s0,64(t0)
a08004ac:	ad110044 	sw	s1,68(t0)
a08004b0:	ad120048 	sw	s2,72(t0)
a08004b4:	ad13004c 	sw	s3,76(t0)
a08004b8:	ad140050 	sw	s4,80(t0)
a08004bc:	ad150054 	sw	s5,84(t0)
a08004c0:	ad160058 	sw	s6,88(t0)
a08004c4:	ad17005c 	sw	s7,92(t0)
a08004c8:	ad180060 	sw	t8,96(t0)
a08004cc:	ad190064 	sw	t9,100(t0)
a08004d0:	ad1c0070 	sw	gp,112(t0)
a08004d4:	ad1d0074 	sw	sp,116(t0)
a08004d8:	ad1e0078 	sw	s8,120(t0)
a08004dc:	ad1f007c 	sw	ra,124(t0)
a08004e0:	401a6000 	mfc0	k0,c0_sr
a08004e4:	00000000 	nop
a08004e8:	ad1a0080 	sw	k0,128(t0)
a08004ec:	0000d010 	mfhi	k0
a08004f0:	ad1a0084 	sw	k0,132(t0)
a08004f4:	0000d012 	mflo	k0
a08004f8:	ad1a0088 	sw	k0,136(t0)
a08004fc:	401a4000 	mfc0	k0,c0_badvaddr
a0800500:	00000000 	nop
a0800504:	ad1a008c 	sw	k0,140(t0)
a0800508:	401a6800 	mfc0	k0,c0_cause
a080050c:	00000000 	nop
a0800510:	ad1a0090 	sw	k0,144(t0)
a0800514:	401a7000 	mfc0	k0,c0_epc
a0800518:	00000000 	nop
a080051c:	0c20093c 	jal	a08024f0 <scheduler>
a0800520:	ad1a0094 	sw	k0,148(t0)
a0800524:	3c08a080 	lui	t0,0xa080
a0800528:	25086598 	addiu	t0,t0,26008
a080052c:	8d080000 	lw	t0,0(t0)
a0800530:	25080000 	addiu	t0,t0,0
a0800534:	8d000000 	lw	zero,0(t0)
a0800538:	8d010004 	lw	at,4(t0)
a080053c:	8d020008 	lw	v0,8(t0)
a0800540:	8d03000c 	lw	v1,12(t0)
a0800544:	8d040010 	lw	a0,16(t0)
a0800548:	8d050014 	lw	a1,20(t0)
a080054c:	8d060018 	lw	a2,24(t0)
a0800550:	8d07001c 	lw	a3,28(t0)
a0800554:	8d090024 	lw	t1,36(t0)
a0800558:	8d0a0028 	lw	t2,40(t0)
a080055c:	8d0b002c 	lw	t3,44(t0)
a0800560:	8d0c0030 	lw	t4,48(t0)
a0800564:	8d0d0034 	lw	t5,52(t0)
a0800568:	8d0e0038 	lw	t6,56(t0)
a080056c:	8d0f003c 	lw	t7,60(t0)
a0800570:	8d100040 	lw	s0,64(t0)
a0800574:	8d110044 	lw	s1,68(t0)
a0800578:	8d120048 	lw	s2,72(t0)
a080057c:	8d13004c 	lw	s3,76(t0)
a0800580:	8d140050 	lw	s4,80(t0)
a0800584:	8d150054 	lw	s5,84(t0)
a0800588:	8d160058 	lw	s6,88(t0)
a080058c:	8d17005c 	lw	s7,92(t0)
a0800590:	8d180060 	lw	t8,96(t0)
a0800594:	8d190064 	lw	t9,100(t0)
a0800598:	8d1c0070 	lw	gp,112(t0)
a080059c:	8d1d0074 	lw	sp,116(t0)
a08005a0:	8d1e0078 	lw	s8,120(t0)
a08005a4:	8d1f007c 	lw	ra,124(t0)
a08005a8:	8d1a0080 	lw	k0,128(t0)
a08005ac:	409a6000 	mtc0	k0,c0_sr
a08005b0:	8d1a0084 	lw	k0,132(t0)
a08005b4:	03400011 	mthi	k0
a08005b8:	8d1a0088 	lw	k0,136(t0)
a08005bc:	03400013 	mtlo	k0
a08005c0:	8d1a008c 	lw	k0,140(t0)
a08005c4:	409a4000 	mtc0	k0,c0_badvaddr
a08005c8:	8d1a0090 	lw	k0,144(t0)
a08005cc:	409a6800 	mtc0	k0,c0_cause
a08005d0:	8d1a0094 	lw	k0,148(t0)
a08005d4:	409a7000 	mtc0	k0,c0_epc
a08005d8:	8fa80000 	lw	t0,0(sp)
a08005dc:	03e00008 	jr	ra
a08005e0:	27bd0004 	addiu	sp,sp,4

a08005e4 <exception_handler_entry>:
a08005e4:	241b0000 	li	k1,0
a08005e8:	341afffe 	li	k0,0xfffe
a08005ec:	3c1bffff 	lui	k1,0xffff
a08005f0:	037ad821 	addu	k1,k1,k0
a08005f4:	401a6000 	mfc0	k0,c0_sr
a08005f8:	00000000 	nop
a08005fc:	035bd024 	and	k0,k0,k1
a0800600:	409a6000 	mtc0	k0,c0_sr
a0800604:	3c1aa080 	lui	k0,0xa080
a0800608:	275a6598 	addiu	k0,k0,26008
a080060c:	8f5a0000 	lw	k0,0(k0)
a0800610:	af5d013c 	sw	sp,316(k0)
a0800614:	8f5d0138 	lw	sp,312(k0)
a0800618:	23bdfffc 	addi	sp,sp,-4
a080061c:	afa80000 	sw	t0,0(sp)
a0800620:	3c08a080 	lui	t0,0xa080
a0800624:	25086598 	addiu	t0,t0,26008
a0800628:	8d080000 	lw	t0,0(t0)
a080062c:	2508009c 	addiu	t0,t0,156
a0800630:	ad000000 	sw	zero,0(t0)
a0800634:	ad010004 	sw	at,4(t0)
a0800638:	ad020008 	sw	v0,8(t0)
a080063c:	ad03000c 	sw	v1,12(t0)
a0800640:	ad040010 	sw	a0,16(t0)
a0800644:	ad050014 	sw	a1,20(t0)
a0800648:	ad060018 	sw	a2,24(t0)
a080064c:	ad07001c 	sw	a3,28(t0)
a0800650:	ad080020 	sw	t0,32(t0)
a0800654:	ad090024 	sw	t1,36(t0)
a0800658:	ad0a0028 	sw	t2,40(t0)
a080065c:	ad0b002c 	sw	t3,44(t0)
a0800660:	ad0c0030 	sw	t4,48(t0)
a0800664:	ad0d0034 	sw	t5,52(t0)
a0800668:	ad0e0038 	sw	t6,56(t0)
a080066c:	ad0f003c 	sw	t7,60(t0)
a0800670:	ad100040 	sw	s0,64(t0)
a0800674:	ad110044 	sw	s1,68(t0)
a0800678:	ad120048 	sw	s2,72(t0)
a080067c:	ad13004c 	sw	s3,76(t0)
a0800680:	ad140050 	sw	s4,80(t0)
a0800684:	ad150054 	sw	s5,84(t0)
a0800688:	ad160058 	sw	s6,88(t0)
a080068c:	ad17005c 	sw	s7,92(t0)
a0800690:	ad180060 	sw	t8,96(t0)
a0800694:	ad190064 	sw	t9,100(t0)
a0800698:	ad1c0070 	sw	gp,112(t0)
a080069c:	ad1d0074 	sw	sp,116(t0)
a08006a0:	ad1e0078 	sw	s8,120(t0)
a08006a4:	ad1f007c 	sw	ra,124(t0)
a08006a8:	401a6000 	mfc0	k0,c0_sr
a08006ac:	00000000 	nop
a08006b0:	ad1a0080 	sw	k0,128(t0)
a08006b4:	0000d010 	mfhi	k0
a08006b8:	ad1a0084 	sw	k0,132(t0)
a08006bc:	0000d012 	mflo	k0
a08006c0:	ad1a0088 	sw	k0,136(t0)
a08006c4:	401a4000 	mfc0	k0,c0_badvaddr
a08006c8:	00000000 	nop
a08006cc:	ad1a008c 	sw	k0,140(t0)
a08006d0:	401a6800 	mfc0	k0,c0_cause
a08006d4:	00000000 	nop
a08006d8:	ad1a0090 	sw	k0,144(t0)
a08006dc:	401a7000 	mfc0	k0,c0_epc
a08006e0:	00000000 	nop
a08006e4:	ad1a0094 	sw	k0,148(t0)
a08006e8:	401a6800 	mfc0	k0,c0_cause
a08006ec:	241b00ff 	li	k1,255
a08006f0:	035bd824 	and	k1,k0,k1
a08006f4:	17600007 	bnez	k1,a0800714 <not_int>
a08006f8:	00000000 	nop
a08006fc:	00000000 	nop
a0800700:	3c1aa080 	lui	k0,0xa080
a0800704:	275a074c 	addiu	k0,k0,1868
a0800708:	03400008 	jr	k0
a080070c:	00000000 	nop
a0800710:	00000000 	nop

a0800714 <not_int>:
a0800714:	241a0020 	li	k0,32
a0800718:	175b0007 	bne	k0,k1,a0800738 <not_syscall>
a080071c:	00000000 	nop
a0800720:	00000000 	nop
a0800724:	3c1aa080 	lui	k0,0xa080
a0800728:	275a091c 	addiu	k0,k0,2332
a080072c:	03400008 	jr	k0
a0800730:	00000000 	nop
a0800734:	00000000 	nop

a0800738 <not_syscall>:
a0800738:	3c1aa080 	lui	k0,0xa080
a080073c:	275a0a1c 	addiu	k0,k0,2588
a0800740:	03400008 	jr	k0
a0800744:	00000000 	nop
a0800748:	00000000 	nop

a080074c <handle_int>:
a080074c:	40046000 	mfc0	a0,c0_sr
a0800750:	40056800 	mfc0	a1,c0_cause
a0800754:	0c2005fc 	jal	a08017f0 <interrupt_helper>
a0800758:	00000000 	nop
a080075c:	00000000 	nop
a0800760:	3c08a080 	lui	t0,0xa080
a0800764:	25086598 	addiu	t0,t0,26008
a0800768:	8d080000 	lw	t0,0(t0)
a080076c:	2508009c 	addiu	t0,t0,156
a0800770:	8d000000 	lw	zero,0(t0)
a0800774:	8d010004 	lw	at,4(t0)
a0800778:	8d020008 	lw	v0,8(t0)
a080077c:	8d03000c 	lw	v1,12(t0)
a0800780:	8d040010 	lw	a0,16(t0)
a0800784:	8d050014 	lw	a1,20(t0)
a0800788:	8d060018 	lw	a2,24(t0)
a080078c:	8d07001c 	lw	a3,28(t0)
a0800790:	8d090024 	lw	t1,36(t0)
a0800794:	8d0a0028 	lw	t2,40(t0)
a0800798:	8d0b002c 	lw	t3,44(t0)
a080079c:	8d0c0030 	lw	t4,48(t0)
a08007a0:	8d0d0034 	lw	t5,52(t0)
a08007a4:	8d0e0038 	lw	t6,56(t0)
a08007a8:	8d0f003c 	lw	t7,60(t0)
a08007ac:	8d100040 	lw	s0,64(t0)
a08007b0:	8d110044 	lw	s1,68(t0)
a08007b4:	8d120048 	lw	s2,72(t0)
a08007b8:	8d13004c 	lw	s3,76(t0)
a08007bc:	8d140050 	lw	s4,80(t0)
a08007c0:	8d150054 	lw	s5,84(t0)
a08007c4:	8d160058 	lw	s6,88(t0)
a08007c8:	8d17005c 	lw	s7,92(t0)
a08007cc:	8d180060 	lw	t8,96(t0)
a08007d0:	8d190064 	lw	t9,100(t0)
a08007d4:	8d1c0070 	lw	gp,112(t0)
a08007d8:	8d1d0074 	lw	sp,116(t0)
a08007dc:	8d1e0078 	lw	s8,120(t0)
a08007e0:	8d1f007c 	lw	ra,124(t0)
a08007e4:	8d1a0080 	lw	k0,128(t0)
a08007e8:	409a6000 	mtc0	k0,c0_sr
a08007ec:	8d1a0084 	lw	k0,132(t0)
a08007f0:	03400011 	mthi	k0
a08007f4:	8d1a0088 	lw	k0,136(t0)
a08007f8:	03400013 	mtlo	k0
a08007fc:	8d1a008c 	lw	k0,140(t0)
a0800800:	409a4000 	mtc0	k0,c0_badvaddr
a0800804:	8d1a0090 	lw	k0,144(t0)
a0800808:	409a6800 	mtc0	k0,c0_cause
a080080c:	8d1a0094 	lw	k0,148(t0)
a0800810:	409a7000 	mtc0	k0,c0_epc
a0800814:	8fa80000 	lw	t0,0(sp)
a0800818:	27bd0004 	addiu	sp,sp,4
a080081c:	3c1aa080 	lui	k0,0xa080
a0800820:	275a6598 	addiu	k0,k0,26008
a0800824:	8f5a0000 	lw	k0,0(k0)
a0800828:	af5d0138 	sw	sp,312(k0)
a080082c:	8f5d013c 	lw	sp,316(k0)
a0800830:	401a6000 	mfc0	k0,c0_sr
a0800834:	241b0001 	li	k1,1
a0800838:	035bd025 	or	k0,k0,k1
a080083c:	409a6000 	mtc0	k0,c0_sr
a0800840:	42000018 	eret
a0800844:	00000000 	nop

a0800848 <first_sched>:
a0800848:	3c08a080 	lui	t0,0xa080
a080084c:	25086598 	addiu	t0,t0,26008
a0800850:	8d080000 	lw	t0,0(t0)
a0800854:	2508009c 	addiu	t0,t0,156
a0800858:	8d000000 	lw	zero,0(t0)
a080085c:	8d010004 	lw	at,4(t0)
a0800860:	8d020008 	lw	v0,8(t0)
a0800864:	8d03000c 	lw	v1,12(t0)
a0800868:	8d040010 	lw	a0,16(t0)
a080086c:	8d050014 	lw	a1,20(t0)
a0800870:	8d060018 	lw	a2,24(t0)
a0800874:	8d07001c 	lw	a3,28(t0)
a0800878:	8d090024 	lw	t1,36(t0)
a080087c:	8d0a0028 	lw	t2,40(t0)
a0800880:	8d0b002c 	lw	t3,44(t0)
a0800884:	8d0c0030 	lw	t4,48(t0)
a0800888:	8d0d0034 	lw	t5,52(t0)
a080088c:	8d0e0038 	lw	t6,56(t0)
a0800890:	8d0f003c 	lw	t7,60(t0)
a0800894:	8d100040 	lw	s0,64(t0)
a0800898:	8d110044 	lw	s1,68(t0)
a080089c:	8d120048 	lw	s2,72(t0)
a08008a0:	8d13004c 	lw	s3,76(t0)
a08008a4:	8d140050 	lw	s4,80(t0)
a08008a8:	8d150054 	lw	s5,84(t0)
a08008ac:	8d160058 	lw	s6,88(t0)
a08008b0:	8d17005c 	lw	s7,92(t0)
a08008b4:	8d180060 	lw	t8,96(t0)
a08008b8:	8d190064 	lw	t9,100(t0)
a08008bc:	8d1c0070 	lw	gp,112(t0)
a08008c0:	8d1d0074 	lw	sp,116(t0)
a08008c4:	8d1e0078 	lw	s8,120(t0)
a08008c8:	8d1f007c 	lw	ra,124(t0)
a08008cc:	8d1a0080 	lw	k0,128(t0)
a08008d0:	409a6000 	mtc0	k0,c0_sr
a08008d4:	8d1a0084 	lw	k0,132(t0)
a08008d8:	03400011 	mthi	k0
a08008dc:	8d1a0088 	lw	k0,136(t0)
a08008e0:	03400013 	mtlo	k0
a08008e4:	8d1a008c 	lw	k0,140(t0)
a08008e8:	409a4000 	mtc0	k0,c0_badvaddr
a08008ec:	8d1a0090 	lw	k0,144(t0)
a08008f0:	409a6800 	mtc0	k0,c0_cause
a08008f4:	8d1a0094 	lw	k0,148(t0)
a08008f8:	409a7000 	mtc0	k0,c0_epc
a08008fc:	8fa80000 	lw	t0,0(sp)
a0800900:	27bd0004 	addiu	sp,sp,4
a0800904:	401a6000 	mfc0	k0,c0_sr
a0800908:	241b0001 	li	k1,1
a080090c:	035bd025 	or	k0,k0,k1
a0800910:	409a6000 	mtc0	k0,c0_sr
a0800914:	42000018 	eret
a0800918:	00000000 	nop

a080091c <handle_syscall>:
a080091c:	3c1aa080 	lui	k0,0xa080
a0800920:	275a6598 	addiu	k0,k0,26008
a0800924:	8f5a0000 	lw	k0,0(k0)
a0800928:	0c200c00 	jal	a0803000 <system_call_helper>
a080092c:	2344009c 	addi	a0,k0,156
a0800930:	00000000 	nop
a0800934:	3c08a080 	lui	t0,0xa080
a0800938:	25086598 	addiu	t0,t0,26008
a080093c:	8d080000 	lw	t0,0(t0)
a0800940:	2508009c 	addiu	t0,t0,156
a0800944:	8d000000 	lw	zero,0(t0)
a0800948:	8d010004 	lw	at,4(t0)
a080094c:	8d020008 	lw	v0,8(t0)
a0800950:	8d03000c 	lw	v1,12(t0)
a0800954:	8d040010 	lw	a0,16(t0)
a0800958:	8d050014 	lw	a1,20(t0)
a080095c:	8d060018 	lw	a2,24(t0)
a0800960:	8d07001c 	lw	a3,28(t0)
a0800964:	8d090024 	lw	t1,36(t0)
a0800968:	8d0a0028 	lw	t2,40(t0)
a080096c:	8d0b002c 	lw	t3,44(t0)
a0800970:	8d0c0030 	lw	t4,48(t0)
a0800974:	8d0d0034 	lw	t5,52(t0)
a0800978:	8d0e0038 	lw	t6,56(t0)
a080097c:	8d0f003c 	lw	t7,60(t0)
a0800980:	8d100040 	lw	s0,64(t0)
a0800984:	8d110044 	lw	s1,68(t0)
a0800988:	8d120048 	lw	s2,72(t0)
a080098c:	8d13004c 	lw	s3,76(t0)
a0800990:	8d140050 	lw	s4,80(t0)
a0800994:	8d150054 	lw	s5,84(t0)
a0800998:	8d160058 	lw	s6,88(t0)
a080099c:	8d17005c 	lw	s7,92(t0)
a08009a0:	8d180060 	lw	t8,96(t0)
a08009a4:	8d190064 	lw	t9,100(t0)
a08009a8:	8d1c0070 	lw	gp,112(t0)
a08009ac:	8d1d0074 	lw	sp,116(t0)
a08009b0:	8d1e0078 	lw	s8,120(t0)
a08009b4:	8d1f007c 	lw	ra,124(t0)
a08009b8:	8d1a0080 	lw	k0,128(t0)
a08009bc:	409a6000 	mtc0	k0,c0_sr
a08009c0:	8d1a0084 	lw	k0,132(t0)
a08009c4:	03400011 	mthi	k0
a08009c8:	8d1a0088 	lw	k0,136(t0)
a08009cc:	03400013 	mtlo	k0
a08009d0:	8d1a008c 	lw	k0,140(t0)
a08009d4:	409a4000 	mtc0	k0,c0_badvaddr
a08009d8:	8d1a0090 	lw	k0,144(t0)
a08009dc:	409a6800 	mtc0	k0,c0_cause
a08009e0:	8d1a0094 	lw	k0,148(t0)
a08009e4:	409a7000 	mtc0	k0,c0_epc
a08009e8:	8fa80000 	lw	t0,0(sp)
a08009ec:	27bd0004 	addiu	sp,sp,4
a08009f0:	3c1aa080 	lui	k0,0xa080
a08009f4:	275a6598 	addiu	k0,k0,26008
a08009f8:	8f5a0000 	lw	k0,0(k0)
a08009fc:	af5d0138 	sw	sp,312(k0)
a0800a00:	8f5d013c 	lw	sp,316(k0)
a0800a04:	401a6000 	mfc0	k0,c0_sr
a0800a08:	241b0001 	li	k1,1
a0800a0c:	035bd025 	or	k0,k0,k1
a0800a10:	409a6000 	mtc0	k0,c0_sr
a0800a14:	42000018 	eret
a0800a18:	00000000 	nop

a0800a1c <handle_other>:
a0800a1c:	00000000 	nop

a0800a20 <port_write_ch>:
a0800a20:	27bdffe0 	addiu	sp,sp,-32
a0800a24:	afbf001c 	sw	ra,28(sp)
a0800a28:	afbe0018 	sw	s8,24(sp)
a0800a2c:	03a0f021 	move	s8,sp
a0800a30:	00801021 	move	v0,a0
a0800a34:	a3c20020 	sb	v0,32(s8)
a0800a38:	3c028001 	lui	v0,0x8001
a0800a3c:	34421140 	ori	v0,v0,0x1140
a0800a40:	afc20010 	sw	v0,16(s8)
a0800a44:	83c20020 	lb	v0,32(s8)
a0800a48:	8fc30010 	lw	v1,16(s8)
a0800a4c:	00402021 	move	a0,v0
a0800a50:	0060f809 	jalr	v1
a0800a54:	00000000 	nop
a0800a58:	03c0e821 	move	sp,s8
a0800a5c:	8fbf001c 	lw	ra,28(sp)
a0800a60:	8fbe0018 	lw	s8,24(sp)
a0800a64:	27bd0020 	addiu	sp,sp,32
a0800a68:	03e00008 	jr	ra
a0800a6c:	00000000 	nop

a0800a70 <port_write>:
a0800a70:	27bdffe0 	addiu	sp,sp,-32
a0800a74:	afbf001c 	sw	ra,28(sp)
a0800a78:	afbe0018 	sw	s8,24(sp)
a0800a7c:	03a0f021 	move	s8,sp
a0800a80:	afc40020 	sw	a0,32(s8)
a0800a84:	3c028001 	lui	v0,0x8001
a0800a88:	34421100 	ori	v0,v0,0x1100
a0800a8c:	afc20010 	sw	v0,16(s8)
a0800a90:	8fc20010 	lw	v0,16(s8)
a0800a94:	8fc40020 	lw	a0,32(s8)
a0800a98:	0040f809 	jalr	v0
a0800a9c:	00000000 	nop
a0800aa0:	03c0e821 	move	sp,s8
a0800aa4:	8fbf001c 	lw	ra,28(sp)
a0800aa8:	8fbe0018 	lw	s8,24(sp)
a0800aac:	27bd0020 	addiu	sp,sp,32
a0800ab0:	03e00008 	jr	ra
a0800ab4:	00000000 	nop
	...

a0800ac0 <init_pcb>:
a0800ac0:	27bdffd0 	addiu	sp,sp,-48
a0800ac4:	afbf002c 	sw	ra,44(sp)
a0800ac8:	afbe0028 	sw	s8,40(sp)
a0800acc:	afb00024 	sw	s0,36(sp)
a0800ad0:	03a0f021 	move	s8,sp
a0800ad4:	afc0001c 	sw	zero,28(s8)
a0800ad8:	3c02a080 	lui	v0,0xa080
a0800adc:	244262ec 	addiu	v0,v0,25324
a0800ae0:	afc20018 	sw	v0,24(s8)
a0800ae4:	3c02a080 	lui	v0,0xa080
a0800ae8:	24426354 	addiu	v0,v0,25428
a0800aec:	afc20014 	sw	v0,20(s8)
a0800af0:	3c02a080 	lui	v0,0xa080
a0800af4:	244263b0 	addiu	v0,v0,25520
a0800af8:	afc20010 	sw	v0,16(s8)
a0800afc:	3c02a080 	lui	v0,0xa080
a0800b00:	24436078 	addiu	v1,v0,24696
a0800b04:	24020001 	li	v0,1
a0800b08:	ac62015c 	sw	v0,348(v1)
a0800b0c:	3c02a080 	lui	v0,0xa080
a0800b10:	244461bc 	addiu	a0,v0,25020
a0800b14:	3c02a080 	lui	v0,0xa080
a0800b18:	24456064 	addiu	a1,v0,24676
a0800b1c:	0c20056c 	jal	a08015b0 <list_add_tail>
a0800b20:	00000000 	nop
a0800b24:	afc0001c 	sw	zero,28(s8)
a0800b28:	08200395 	j	a0800e54 <init_pcb+0x394>
a0800b2c:	00000000 	nop
a0800b30:	8fd0001c 	lw	s0,28(s8)
a0800b34:	24040001 	li	a0,1
a0800b38:	0c200bd4 	jal	a0802f50 <allocPage>
a0800b3c:	00000000 	nop
a0800b40:	00402021 	move	a0,v0
a0800b44:	3c05a081 	lui	a1,0xa081
a0800b48:	02001021 	move	v0,s0
a0800b4c:	000218c0 	sll	v1,v0,0x3
a0800b50:	00031080 	sll	v0,v1,0x2
a0800b54:	00431023 	subu	v0,v0,v1
a0800b58:	00021900 	sll	v1,v0,0x4
a0800b5c:	00621823 	subu	v1,v1,v0
a0800b60:	24a28910 	addiu	v0,a1,-30448
a0800b64:	00621021 	addu	v0,v1,v0
a0800b68:	ac440138 	sw	a0,312(v0)
a0800b6c:	8fd0001c 	lw	s0,28(s8)
a0800b70:	24040001 	li	a0,1
a0800b74:	0c200bd4 	jal	a0802f50 <allocPage>
a0800b78:	00000000 	nop
a0800b7c:	00402021 	move	a0,v0
a0800b80:	3c02a081 	lui	v0,0xa081
a0800b84:	24458910 	addiu	a1,v0,-30448
a0800b88:	02001021 	move	v0,s0
a0800b8c:	000218c0 	sll	v1,v0,0x3
a0800b90:	00031080 	sll	v0,v1,0x2
a0800b94:	00431023 	subu	v0,v0,v1
a0800b98:	00021900 	sll	v1,v0,0x4
a0800b9c:	00621023 	subu	v0,v1,v0
a0800ba0:	00a21021 	addu	v0,a1,v0
a0800ba4:	ac44013c 	sw	a0,316(v0)
a0800ba8:	8fc3001c 	lw	v1,28(s8)
a0800bac:	3c02a080 	lui	v0,0xa080
a0800bb0:	24440848 	addiu	a0,v0,2120
a0800bb4:	3c05a081 	lui	a1,0xa081
a0800bb8:	00601021 	move	v0,v1
a0800bbc:	000218c0 	sll	v1,v0,0x3
a0800bc0:	00031080 	sll	v0,v1,0x2
a0800bc4:	00431023 	subu	v0,v0,v1
a0800bc8:	00021900 	sll	v1,v0,0x4
a0800bcc:	00621823 	subu	v1,v1,v0
a0800bd0:	24a28910 	addiu	v0,a1,-30448
a0800bd4:	00621021 	addu	v0,v1,v0
a0800bd8:	ac44007c 	sw	a0,124(v0)
a0800bdc:	8fc6001c 	lw	a2,28(s8)
a0800be0:	8fc2001c 	lw	v0,28(s8)
a0800be4:	3c04a081 	lui	a0,0xa081
a0800be8:	000218c0 	sll	v1,v0,0x3
a0800bec:	00031080 	sll	v0,v1,0x2
a0800bf0:	00431023 	subu	v0,v0,v1
a0800bf4:	00021900 	sll	v1,v0,0x4
a0800bf8:	00621823 	subu	v1,v1,v0
a0800bfc:	24828910 	addiu	v0,a0,-30448
a0800c00:	00621021 	addu	v0,v1,v0
a0800c04:	8c420138 	lw	v0,312(v0)
a0800c08:	2444fffc 	addiu	a0,v0,-4
a0800c0c:	3c05a081 	lui	a1,0xa081
a0800c10:	00c01021 	move	v0,a2
a0800c14:	000218c0 	sll	v1,v0,0x3
a0800c18:	00031080 	sll	v0,v1,0x2
a0800c1c:	00431023 	subu	v0,v0,v1
a0800c20:	00021900 	sll	v1,v0,0x4
a0800c24:	00621823 	subu	v1,v1,v0
a0800c28:	24a28910 	addiu	v0,a1,-30448
a0800c2c:	00621021 	addu	v0,v1,v0
a0800c30:	ac440074 	sw	a0,116(v0)
a0800c34:	8fc2001c 	lw	v0,28(s8)
a0800c38:	3c04a081 	lui	a0,0xa081
a0800c3c:	000218c0 	sll	v1,v0,0x3
a0800c40:	00031080 	sll	v0,v1,0x2
a0800c44:	00431023 	subu	v0,v0,v1
a0800c48:	00021900 	sll	v1,v0,0x4
a0800c4c:	00621823 	subu	v1,v1,v0
a0800c50:	24828910 	addiu	v0,a0,-30448
a0800c54:	00621821 	addu	v1,v1,v0
a0800c58:	3c023000 	lui	v0,0x3000
a0800c5c:	3442ff00 	ori	v0,v0,0xff00
a0800c60:	ac620080 	sw	v0,128(v1)
a0800c64:	8fc4001c 	lw	a0,28(s8)
a0800c68:	8fc2001c 	lw	v0,28(s8)
a0800c6c:	00021880 	sll	v1,v0,0x2
a0800c70:	8fc20018 	lw	v0,24(s8)
a0800c74:	00431021 	addu	v0,v0,v1
a0800c78:	8c420000 	lw	v0,0(v0)
a0800c7c:	8c450000 	lw	a1,0(v0)
a0800c80:	3c02a081 	lui	v0,0xa081
a0800c84:	24468910 	addiu	a2,v0,-30448
a0800c88:	00801021 	move	v0,a0
a0800c8c:	000218c0 	sll	v1,v0,0x3
a0800c90:	00031080 	sll	v0,v1,0x2
a0800c94:	00431023 	subu	v0,v0,v1
a0800c98:	00021900 	sll	v1,v0,0x4
a0800c9c:	00621023 	subu	v0,v1,v0
a0800ca0:	00c21021 	addu	v0,a2,v0
a0800ca4:	ac450130 	sw	a1,304(v0)
a0800ca8:	8fc6001c 	lw	a2,28(s8)
a0800cac:	8fc3001c 	lw	v1,28(s8)
a0800cb0:	3c02a081 	lui	v0,0xa081
a0800cb4:	24448910 	addiu	a0,v0,-30448
a0800cb8:	00601021 	move	v0,v1
a0800cbc:	000218c0 	sll	v1,v0,0x3
a0800cc0:	00031080 	sll	v0,v1,0x2
a0800cc4:	00431023 	subu	v0,v0,v1
a0800cc8:	00021900 	sll	v1,v0,0x4
a0800ccc:	00621023 	subu	v0,v1,v0
a0800cd0:	00821021 	addu	v0,a0,v0
a0800cd4:	8c42013c 	lw	v0,316(v0)
a0800cd8:	2444fffc 	addiu	a0,v0,-4
a0800cdc:	3c02a081 	lui	v0,0xa081
a0800ce0:	24458910 	addiu	a1,v0,-30448
a0800ce4:	00c01021 	move	v0,a2
a0800ce8:	000218c0 	sll	v1,v0,0x3
a0800cec:	00031080 	sll	v0,v1,0x2
a0800cf0:	00431023 	subu	v0,v0,v1
a0800cf4:	00021900 	sll	v1,v0,0x4
a0800cf8:	00621023 	subu	v0,v1,v0
a0800cfc:	00a21021 	addu	v0,a1,v0
a0800d00:	ac440110 	sw	a0,272(v0)
a0800d04:	8fc3001c 	lw	v1,28(s8)
a0800d08:	3c02a081 	lui	v0,0xa081
a0800d0c:	24448910 	addiu	a0,v0,-30448
a0800d10:	00601021 	move	v0,v1
a0800d14:	000218c0 	sll	v1,v0,0x3
a0800d18:	00031080 	sll	v0,v1,0x2
a0800d1c:	00431023 	subu	v0,v0,v1
a0800d20:	00021900 	sll	v1,v0,0x4
a0800d24:	00621023 	subu	v0,v1,v0
a0800d28:	00821021 	addu	v0,a0,v0
a0800d2c:	3c033000 	lui	v1,0x3000
a0800d30:	3463ff00 	ori	v1,v1,0xff00
a0800d34:	ac43011c 	sw	v1,284(v0)
a0800d38:	8fc4001c 	lw	a0,28(s8)
a0800d3c:	8fc2001c 	lw	v0,28(s8)
a0800d40:	00021880 	sll	v1,v0,0x2
a0800d44:	8fc20018 	lw	v0,24(s8)
a0800d48:	00431021 	addu	v0,v0,v1
a0800d4c:	8c420000 	lw	v0,0(v0)
a0800d50:	8c450004 	lw	a1,4(v0)
a0800d54:	3c06a081 	lui	a2,0xa081
a0800d58:	00801021 	move	v0,a0
a0800d5c:	000218c0 	sll	v1,v0,0x3
a0800d60:	00031080 	sll	v0,v1,0x2
a0800d64:	00431023 	subu	v0,v0,v1
a0800d68:	00021900 	sll	v1,v0,0x4
a0800d6c:	00621823 	subu	v1,v1,v0
a0800d70:	24c28910 	addiu	v0,a2,-30448
a0800d74:	00621021 	addu	v0,v1,v0
a0800d78:	ac450158 	sw	a1,344(v0)
a0800d7c:	8fc3001c 	lw	v1,28(s8)
a0800d80:	8fc2001c 	lw	v0,28(s8)
a0800d84:	24440001 	addiu	a0,v0,1
a0800d88:	3c02a081 	lui	v0,0xa081
a0800d8c:	24458910 	addiu	a1,v0,-30448
a0800d90:	00601021 	move	v0,v1
a0800d94:	000218c0 	sll	v1,v0,0x3
a0800d98:	00031080 	sll	v0,v1,0x2
a0800d9c:	00431023 	subu	v0,v0,v1
a0800da0:	00021900 	sll	v1,v0,0x4
a0800da4:	00621023 	subu	v0,v1,v0
a0800da8:	00a21021 	addu	v0,a1,v0
a0800dac:	ac440154 	sw	a0,340(v0)
a0800db0:	8fc2001c 	lw	v0,28(s8)
a0800db4:	3c04a081 	lui	a0,0xa081
a0800db8:	000218c0 	sll	v1,v0,0x3
a0800dbc:	00031080 	sll	v0,v1,0x2
a0800dc0:	00431023 	subu	v0,v0,v1
a0800dc4:	00021900 	sll	v1,v0,0x4
a0800dc8:	00621823 	subu	v1,v1,v0
a0800dcc:	24828910 	addiu	v0,a0,-30448
a0800dd0:	00621021 	addu	v0,v1,v0
a0800dd4:	ac400140 	sw	zero,320(v0)
a0800dd8:	8fc3001c 	lw	v1,28(s8)
a0800ddc:	3c02a081 	lui	v0,0xa081
a0800de0:	24448910 	addiu	a0,v0,-30448
a0800de4:	00601021 	move	v0,v1
a0800de8:	000218c0 	sll	v1,v0,0x3
a0800dec:	00031080 	sll	v0,v1,0x2
a0800df0:	00431023 	subu	v0,v0,v1
a0800df4:	00021900 	sll	v1,v0,0x4
a0800df8:	00621023 	subu	v0,v1,v0
a0800dfc:	00821021 	addu	v0,a0,v0
a0800e00:	24030002 	li	v1,2
a0800e04:	ac43015c 	sw	v1,348(v0)
a0800e08:	8fc2001c 	lw	v0,28(s8)
a0800e0c:	000210c0 	sll	v0,v0,0x3
a0800e10:	00021880 	sll	v1,v0,0x2
a0800e14:	00621823 	subu	v1,v1,v0
a0800e18:	00031100 	sll	v0,v1,0x4
a0800e1c:	00431023 	subu	v0,v0,v1
a0800e20:	24430140 	addiu	v1,v0,320
a0800e24:	3c02a081 	lui	v0,0xa081
a0800e28:	24428910 	addiu	v0,v0,-30448
a0800e2c:	00621021 	addu	v0,v1,v0
a0800e30:	24420004 	addiu	v0,v0,4
a0800e34:	00402021 	move	a0,v0
a0800e38:	3c02a080 	lui	v0,0xa080
a0800e3c:	24456064 	addiu	a1,v0,24676
a0800e40:	0c20056c 	jal	a08015b0 <list_add_tail>
a0800e44:	00000000 	nop
a0800e48:	8fc2001c 	lw	v0,28(s8)
a0800e4c:	24420001 	addiu	v0,v0,1
a0800e50:	afc2001c 	sw	v0,28(s8)
a0800e54:	3c02a080 	lui	v0,0xa080
a0800e58:	8c43632c 	lw	v1,25388(v0)
a0800e5c:	8fc2001c 	lw	v0,28(s8)
a0800e60:	0043102a 	slt	v0,v0,v1
a0800e64:	1440ff32 	bnez	v0,a0800b30 <init_pcb+0x70>
a0800e68:	00000000 	nop
a0800e6c:	3c02a080 	lui	v0,0xa080
a0800e70:	8c42632c 	lw	v0,25388(v0)
a0800e74:	afc2001c 	sw	v0,28(s8)
a0800e78:	0820046f 	j	a08011bc <init_pcb+0x6fc>
a0800e7c:	00000000 	nop
a0800e80:	8fd0001c 	lw	s0,28(s8)
a0800e84:	24040001 	li	a0,1
a0800e88:	0c200bd4 	jal	a0802f50 <allocPage>
a0800e8c:	00000000 	nop
a0800e90:	00402021 	move	a0,v0
a0800e94:	3c05a081 	lui	a1,0xa081
a0800e98:	02001021 	move	v0,s0
a0800e9c:	000218c0 	sll	v1,v0,0x3
a0800ea0:	00031080 	sll	v0,v1,0x2
a0800ea4:	00431023 	subu	v0,v0,v1
a0800ea8:	00021900 	sll	v1,v0,0x4
a0800eac:	00621823 	subu	v1,v1,v0
a0800eb0:	24a28910 	addiu	v0,a1,-30448
a0800eb4:	00621021 	addu	v0,v1,v0
a0800eb8:	ac440138 	sw	a0,312(v0)
a0800ebc:	8fd0001c 	lw	s0,28(s8)
a0800ec0:	24040001 	li	a0,1
a0800ec4:	0c200bd4 	jal	a0802f50 <allocPage>
a0800ec8:	00000000 	nop
a0800ecc:	00402021 	move	a0,v0
a0800ed0:	3c02a081 	lui	v0,0xa081
a0800ed4:	24458910 	addiu	a1,v0,-30448
a0800ed8:	02001021 	move	v0,s0
a0800edc:	000218c0 	sll	v1,v0,0x3
a0800ee0:	00031080 	sll	v0,v1,0x2
a0800ee4:	00431023 	subu	v0,v0,v1
a0800ee8:	00021900 	sll	v1,v0,0x4
a0800eec:	00621023 	subu	v0,v1,v0
a0800ef0:	00a21021 	addu	v0,a1,v0
a0800ef4:	ac44013c 	sw	a0,316(v0)
a0800ef8:	8fc3001c 	lw	v1,28(s8)
a0800efc:	3c02a080 	lui	v0,0xa080
a0800f00:	24440848 	addiu	a0,v0,2120
a0800f04:	3c05a081 	lui	a1,0xa081
a0800f08:	00601021 	move	v0,v1
a0800f0c:	000218c0 	sll	v1,v0,0x3
a0800f10:	00031080 	sll	v0,v1,0x2
a0800f14:	00431023 	subu	v0,v0,v1
a0800f18:	00021900 	sll	v1,v0,0x4
a0800f1c:	00621823 	subu	v1,v1,v0
a0800f20:	24a28910 	addiu	v0,a1,-30448
a0800f24:	00621021 	addu	v0,v1,v0
a0800f28:	ac44007c 	sw	a0,124(v0)
a0800f2c:	8fc6001c 	lw	a2,28(s8)
a0800f30:	8fc2001c 	lw	v0,28(s8)
a0800f34:	3c04a081 	lui	a0,0xa081
a0800f38:	000218c0 	sll	v1,v0,0x3
a0800f3c:	00031080 	sll	v0,v1,0x2
a0800f40:	00431023 	subu	v0,v0,v1
a0800f44:	00021900 	sll	v1,v0,0x4
a0800f48:	00621823 	subu	v1,v1,v0
a0800f4c:	24828910 	addiu	v0,a0,-30448
a0800f50:	00621021 	addu	v0,v1,v0
a0800f54:	8c420138 	lw	v0,312(v0)
a0800f58:	2444fffc 	addiu	a0,v0,-4
a0800f5c:	3c05a081 	lui	a1,0xa081
a0800f60:	00c01021 	move	v0,a2
a0800f64:	000218c0 	sll	v1,v0,0x3
a0800f68:	00031080 	sll	v0,v1,0x2
a0800f6c:	00431023 	subu	v0,v0,v1
a0800f70:	00021900 	sll	v1,v0,0x4
a0800f74:	00621823 	subu	v1,v1,v0
a0800f78:	24a28910 	addiu	v0,a1,-30448
a0800f7c:	00621021 	addu	v0,v1,v0
a0800f80:	ac440074 	sw	a0,116(v0)
a0800f84:	8fc2001c 	lw	v0,28(s8)
a0800f88:	3c04a081 	lui	a0,0xa081
a0800f8c:	000218c0 	sll	v1,v0,0x3
a0800f90:	00031080 	sll	v0,v1,0x2
a0800f94:	00431023 	subu	v0,v0,v1
a0800f98:	00021900 	sll	v1,v0,0x4
a0800f9c:	00621823 	subu	v1,v1,v0
a0800fa0:	24828910 	addiu	v0,a0,-30448
a0800fa4:	00621821 	addu	v1,v1,v0
a0800fa8:	3c023000 	lui	v0,0x3000
a0800fac:	3442ff00 	ori	v0,v0,0xff00
a0800fb0:	ac620080 	sw	v0,128(v1)
a0800fb4:	8fc6001c 	lw	a2,28(s8)
a0800fb8:	3c02a080 	lui	v0,0xa080
a0800fbc:	8c43632c 	lw	v1,25388(v0)
a0800fc0:	8fc2001c 	lw	v0,28(s8)
a0800fc4:	00431023 	subu	v0,v0,v1
a0800fc8:	00021880 	sll	v1,v0,0x2
a0800fcc:	8fc20014 	lw	v0,20(s8)
a0800fd0:	00431021 	addu	v0,v0,v1
a0800fd4:	8c420000 	lw	v0,0(v0)
a0800fd8:	8c440000 	lw	a0,0(v0)
a0800fdc:	3c02a081 	lui	v0,0xa081
a0800fe0:	24458910 	addiu	a1,v0,-30448
a0800fe4:	00c01021 	move	v0,a2
a0800fe8:	000218c0 	sll	v1,v0,0x3
a0800fec:	00031080 	sll	v0,v1,0x2
a0800ff0:	00431023 	subu	v0,v0,v1
a0800ff4:	00021900 	sll	v1,v0,0x4
a0800ff8:	00621023 	subu	v0,v1,v0
a0800ffc:	00a21021 	addu	v0,a1,v0
a0801000:	ac440130 	sw	a0,304(v0)
a0801004:	8fc6001c 	lw	a2,28(s8)
a0801008:	8fc3001c 	lw	v1,28(s8)
a080100c:	3c02a081 	lui	v0,0xa081
a0801010:	24448910 	addiu	a0,v0,-30448
a0801014:	00601021 	move	v0,v1
a0801018:	000218c0 	sll	v1,v0,0x3
a080101c:	00031080 	sll	v0,v1,0x2
a0801020:	00431023 	subu	v0,v0,v1
a0801024:	00021900 	sll	v1,v0,0x4
a0801028:	00621023 	subu	v0,v1,v0
a080102c:	00821021 	addu	v0,a0,v0
a0801030:	8c42013c 	lw	v0,316(v0)
a0801034:	2444fffc 	addiu	a0,v0,-4
a0801038:	3c02a081 	lui	v0,0xa081
a080103c:	24458910 	addiu	a1,v0,-30448
a0801040:	00c01021 	move	v0,a2
a0801044:	000218c0 	sll	v1,v0,0x3
a0801048:	00031080 	sll	v0,v1,0x2
a080104c:	00431023 	subu	v0,v0,v1
a0801050:	00021900 	sll	v1,v0,0x4
a0801054:	00621023 	subu	v0,v1,v0
a0801058:	00a21021 	addu	v0,a1,v0
a080105c:	ac440110 	sw	a0,272(v0)
a0801060:	8fc3001c 	lw	v1,28(s8)
a0801064:	3c02a081 	lui	v0,0xa081
a0801068:	24448910 	addiu	a0,v0,-30448
a080106c:	00601021 	move	v0,v1
a0801070:	000218c0 	sll	v1,v0,0x3
a0801074:	00031080 	sll	v0,v1,0x2
a0801078:	00431023 	subu	v0,v0,v1
a080107c:	00021900 	sll	v1,v0,0x4
a0801080:	00621023 	subu	v0,v1,v0
a0801084:	00821021 	addu	v0,a0,v0
a0801088:	3c033000 	lui	v1,0x3000
a080108c:	3463ff00 	ori	v1,v1,0xff00
a0801090:	ac43011c 	sw	v1,284(v0)
a0801094:	8fc6001c 	lw	a2,28(s8)
a0801098:	3c02a080 	lui	v0,0xa080
a080109c:	8c43632c 	lw	v1,25388(v0)
a08010a0:	8fc2001c 	lw	v0,28(s8)
a08010a4:	00431023 	subu	v0,v0,v1
a08010a8:	00021880 	sll	v1,v0,0x2
a08010ac:	8fc20014 	lw	v0,20(s8)
a08010b0:	00431021 	addu	v0,v0,v1
a08010b4:	8c420000 	lw	v0,0(v0)
a08010b8:	8c440004 	lw	a0,4(v0)
a08010bc:	3c05a081 	lui	a1,0xa081
a08010c0:	00c01021 	move	v0,a2
a08010c4:	000218c0 	sll	v1,v0,0x3
a08010c8:	00031080 	sll	v0,v1,0x2
a08010cc:	00431023 	subu	v0,v0,v1
a08010d0:	00021900 	sll	v1,v0,0x4
a08010d4:	00621823 	subu	v1,v1,v0
a08010d8:	24a28910 	addiu	v0,a1,-30448
a08010dc:	00621021 	addu	v0,v1,v0
a08010e0:	ac440158 	sw	a0,344(v0)
a08010e4:	8fc3001c 	lw	v1,28(s8)
a08010e8:	8fc2001c 	lw	v0,28(s8)
a08010ec:	24440001 	addiu	a0,v0,1
a08010f0:	3c02a081 	lui	v0,0xa081
a08010f4:	24458910 	addiu	a1,v0,-30448
a08010f8:	00601021 	move	v0,v1
a08010fc:	000218c0 	sll	v1,v0,0x3
a0801100:	00031080 	sll	v0,v1,0x2
a0801104:	00431023 	subu	v0,v0,v1
a0801108:	00021900 	sll	v1,v0,0x4
a080110c:	00621023 	subu	v0,v1,v0
a0801110:	00a21021 	addu	v0,a1,v0
a0801114:	ac440154 	sw	a0,340(v0)
a0801118:	8fc2001c 	lw	v0,28(s8)
a080111c:	3c04a081 	lui	a0,0xa081
a0801120:	000218c0 	sll	v1,v0,0x3
a0801124:	00031080 	sll	v0,v1,0x2
a0801128:	00431023 	subu	v0,v0,v1
a080112c:	00021900 	sll	v1,v0,0x4
a0801130:	00621823 	subu	v1,v1,v0
a0801134:	24828910 	addiu	v0,a0,-30448
a0801138:	00621021 	addu	v0,v1,v0
a080113c:	ac400140 	sw	zero,320(v0)
a0801140:	8fc3001c 	lw	v1,28(s8)
a0801144:	3c02a081 	lui	v0,0xa081
a0801148:	24448910 	addiu	a0,v0,-30448
a080114c:	00601021 	move	v0,v1
a0801150:	000218c0 	sll	v1,v0,0x3
a0801154:	00031080 	sll	v0,v1,0x2
a0801158:	00431023 	subu	v0,v0,v1
a080115c:	00021900 	sll	v1,v0,0x4
a0801160:	00621023 	subu	v0,v1,v0
a0801164:	00821021 	addu	v0,a0,v0
a0801168:	24030002 	li	v1,2
a080116c:	ac43015c 	sw	v1,348(v0)
a0801170:	8fc2001c 	lw	v0,28(s8)
a0801174:	000210c0 	sll	v0,v0,0x3
a0801178:	00021880 	sll	v1,v0,0x2
a080117c:	00621823 	subu	v1,v1,v0
a0801180:	00031100 	sll	v0,v1,0x4
a0801184:	00431023 	subu	v0,v0,v1
a0801188:	24430140 	addiu	v1,v0,320
a080118c:	3c02a081 	lui	v0,0xa081
a0801190:	24428910 	addiu	v0,v0,-30448
a0801194:	00621021 	addu	v0,v1,v0
a0801198:	24420004 	addiu	v0,v0,4
a080119c:	00402021 	move	a0,v0
a08011a0:	3c02a080 	lui	v0,0xa080
a08011a4:	24456064 	addiu	a1,v0,24676
a08011a8:	0c20056c 	jal	a08015b0 <list_add_tail>
a08011ac:	00000000 	nop
a08011b0:	8fc2001c 	lw	v0,28(s8)
a08011b4:	24420001 	addiu	v0,v0,1
a08011b8:	afc2001c 	sw	v0,28(s8)
a08011bc:	3c02a080 	lui	v0,0xa080
a08011c0:	8c43632c 	lw	v1,25388(v0)
a08011c4:	3c02a080 	lui	v0,0xa080
a08011c8:	8c426394 	lw	v0,25492(v0)
a08011cc:	00621821 	addu	v1,v1,v0
a08011d0:	8fc2001c 	lw	v0,28(s8)
a08011d4:	0043102a 	slt	v0,v0,v1
a08011d8:	1440ff29 	bnez	v0,a0800e80 <init_pcb+0x3c0>
a08011dc:	00000000 	nop
a08011e0:	3c02a080 	lui	v0,0xa080
a08011e4:	8c43632c 	lw	v1,25388(v0)
a08011e8:	3c02a080 	lui	v0,0xa080
a08011ec:	8c426394 	lw	v0,25492(v0)
a08011f0:	00621021 	addu	v0,v1,v0
a08011f4:	afc2001c 	sw	v0,28(s8)
a08011f8:	08200555 	j	a0801554 <init_pcb+0xa94>
a08011fc:	00000000 	nop
a0801200:	8fd0001c 	lw	s0,28(s8)
a0801204:	24040001 	li	a0,1
a0801208:	0c200bd4 	jal	a0802f50 <allocPage>
a080120c:	00000000 	nop
a0801210:	00402021 	move	a0,v0
a0801214:	3c05a081 	lui	a1,0xa081
a0801218:	02001021 	move	v0,s0
a080121c:	000218c0 	sll	v1,v0,0x3
a0801220:	00031080 	sll	v0,v1,0x2
a0801224:	00431023 	subu	v0,v0,v1
a0801228:	00021900 	sll	v1,v0,0x4
a080122c:	00621823 	subu	v1,v1,v0
a0801230:	24a28910 	addiu	v0,a1,-30448
a0801234:	00621021 	addu	v0,v1,v0
a0801238:	ac440138 	sw	a0,312(v0)
a080123c:	8fd0001c 	lw	s0,28(s8)
a0801240:	24040001 	li	a0,1
a0801244:	0c200bd4 	jal	a0802f50 <allocPage>
a0801248:	00000000 	nop
a080124c:	00402021 	move	a0,v0
a0801250:	3c02a081 	lui	v0,0xa081
a0801254:	24458910 	addiu	a1,v0,-30448
a0801258:	02001021 	move	v0,s0
a080125c:	000218c0 	sll	v1,v0,0x3
a0801260:	00031080 	sll	v0,v1,0x2
a0801264:	00431023 	subu	v0,v0,v1
a0801268:	00021900 	sll	v1,v0,0x4
a080126c:	00621023 	subu	v0,v1,v0
a0801270:	00a21021 	addu	v0,a1,v0
a0801274:	ac44013c 	sw	a0,316(v0)
a0801278:	8fc3001c 	lw	v1,28(s8)
a080127c:	3c02a080 	lui	v0,0xa080
a0801280:	24440848 	addiu	a0,v0,2120
a0801284:	3c05a081 	lui	a1,0xa081
a0801288:	00601021 	move	v0,v1
a080128c:	000218c0 	sll	v1,v0,0x3
a0801290:	00031080 	sll	v0,v1,0x2
a0801294:	00431023 	subu	v0,v0,v1
a0801298:	00021900 	sll	v1,v0,0x4
a080129c:	00621823 	subu	v1,v1,v0
a08012a0:	24a28910 	addiu	v0,a1,-30448
a08012a4:	00621021 	addu	v0,v1,v0
a08012a8:	ac44007c 	sw	a0,124(v0)
a08012ac:	8fc6001c 	lw	a2,28(s8)
a08012b0:	8fc2001c 	lw	v0,28(s8)
a08012b4:	3c04a081 	lui	a0,0xa081
a08012b8:	000218c0 	sll	v1,v0,0x3
a08012bc:	00031080 	sll	v0,v1,0x2
a08012c0:	00431023 	subu	v0,v0,v1
a08012c4:	00021900 	sll	v1,v0,0x4
a08012c8:	00621823 	subu	v1,v1,v0
a08012cc:	24828910 	addiu	v0,a0,-30448
a08012d0:	00621021 	addu	v0,v1,v0
a08012d4:	8c420138 	lw	v0,312(v0)
a08012d8:	2444fffc 	addiu	a0,v0,-4
a08012dc:	3c05a081 	lui	a1,0xa081
a08012e0:	00c01021 	move	v0,a2
a08012e4:	000218c0 	sll	v1,v0,0x3
a08012e8:	00031080 	sll	v0,v1,0x2
a08012ec:	00431023 	subu	v0,v0,v1
a08012f0:	00021900 	sll	v1,v0,0x4
a08012f4:	00621823 	subu	v1,v1,v0
a08012f8:	24a28910 	addiu	v0,a1,-30448
a08012fc:	00621021 	addu	v0,v1,v0
a0801300:	ac440074 	sw	a0,116(v0)
a0801304:	8fc2001c 	lw	v0,28(s8)
a0801308:	3c04a081 	lui	a0,0xa081
a080130c:	000218c0 	sll	v1,v0,0x3
a0801310:	00031080 	sll	v0,v1,0x2
a0801314:	00431023 	subu	v0,v0,v1
a0801318:	00021900 	sll	v1,v0,0x4
a080131c:	00621823 	subu	v1,v1,v0
a0801320:	24828910 	addiu	v0,a0,-30448
a0801324:	00621821 	addu	v1,v1,v0
a0801328:	3c023000 	lui	v0,0x3000
a080132c:	3442ff00 	ori	v0,v0,0xff00
a0801330:	ac620080 	sw	v0,128(v1)
a0801334:	8fc6001c 	lw	a2,28(s8)
a0801338:	3c02a080 	lui	v0,0xa080
a080133c:	8c43632c 	lw	v1,25388(v0)
a0801340:	8fc2001c 	lw	v0,28(s8)
a0801344:	00431823 	subu	v1,v0,v1
a0801348:	3c02a080 	lui	v0,0xa080
a080134c:	8c426394 	lw	v0,25492(v0)
a0801350:	00621023 	subu	v0,v1,v0
a0801354:	00021880 	sll	v1,v0,0x2
a0801358:	8fc20010 	lw	v0,16(s8)
a080135c:	00431021 	addu	v0,v0,v1
a0801360:	8c420000 	lw	v0,0(v0)
a0801364:	8c440000 	lw	a0,0(v0)
a0801368:	3c02a081 	lui	v0,0xa081
a080136c:	24458910 	addiu	a1,v0,-30448
a0801370:	00c01021 	move	v0,a2
a0801374:	000218c0 	sll	v1,v0,0x3
a0801378:	00031080 	sll	v0,v1,0x2
a080137c:	00431023 	subu	v0,v0,v1
a0801380:	00021900 	sll	v1,v0,0x4
a0801384:	00621023 	subu	v0,v1,v0
a0801388:	00a21021 	addu	v0,a1,v0
a080138c:	ac440130 	sw	a0,304(v0)
a0801390:	8fc6001c 	lw	a2,28(s8)
a0801394:	8fc3001c 	lw	v1,28(s8)
a0801398:	3c02a081 	lui	v0,0xa081
a080139c:	24448910 	addiu	a0,v0,-30448
a08013a0:	00601021 	move	v0,v1
a08013a4:	000218c0 	sll	v1,v0,0x3
a08013a8:	00031080 	sll	v0,v1,0x2
a08013ac:	00431023 	subu	v0,v0,v1
a08013b0:	00021900 	sll	v1,v0,0x4
a08013b4:	00621023 	subu	v0,v1,v0
a08013b8:	00821021 	addu	v0,a0,v0
a08013bc:	8c42013c 	lw	v0,316(v0)
a08013c0:	2444fffc 	addiu	a0,v0,-4
a08013c4:	3c02a081 	lui	v0,0xa081
a08013c8:	24458910 	addiu	a1,v0,-30448
a08013cc:	00c01021 	move	v0,a2
a08013d0:	000218c0 	sll	v1,v0,0x3
a08013d4:	00031080 	sll	v0,v1,0x2
a08013d8:	00431023 	subu	v0,v0,v1
a08013dc:	00021900 	sll	v1,v0,0x4
a08013e0:	00621023 	subu	v0,v1,v0
a08013e4:	00a21021 	addu	v0,a1,v0
a08013e8:	ac440110 	sw	a0,272(v0)
a08013ec:	8fc3001c 	lw	v1,28(s8)
a08013f0:	3c02a081 	lui	v0,0xa081
a08013f4:	24448910 	addiu	a0,v0,-30448
a08013f8:	00601021 	move	v0,v1
a08013fc:	000218c0 	sll	v1,v0,0x3
a0801400:	00031080 	sll	v0,v1,0x2
a0801404:	00431023 	subu	v0,v0,v1
a0801408:	00021900 	sll	v1,v0,0x4
a080140c:	00621023 	subu	v0,v1,v0
a0801410:	00821021 	addu	v0,a0,v0
a0801414:	3c033000 	lui	v1,0x3000
a0801418:	3463ff00 	ori	v1,v1,0xff00
a080141c:	ac43011c 	sw	v1,284(v0)
a0801420:	8fc6001c 	lw	a2,28(s8)
a0801424:	3c02a080 	lui	v0,0xa080
a0801428:	8c43632c 	lw	v1,25388(v0)
a080142c:	8fc2001c 	lw	v0,28(s8)
a0801430:	00431823 	subu	v1,v0,v1
a0801434:	3c02a080 	lui	v0,0xa080
a0801438:	8c426394 	lw	v0,25492(v0)
a080143c:	00621023 	subu	v0,v1,v0
a0801440:	00021880 	sll	v1,v0,0x2
a0801444:	8fc20010 	lw	v0,16(s8)
a0801448:	00431021 	addu	v0,v0,v1
a080144c:	8c420000 	lw	v0,0(v0)
a0801450:	8c440004 	lw	a0,4(v0)
a0801454:	3c05a081 	lui	a1,0xa081
a0801458:	00c01021 	move	v0,a2
a080145c:	000218c0 	sll	v1,v0,0x3
a0801460:	00031080 	sll	v0,v1,0x2
a0801464:	00431023 	subu	v0,v0,v1
a0801468:	00021900 	sll	v1,v0,0x4
a080146c:	00621823 	subu	v1,v1,v0
a0801470:	24a28910 	addiu	v0,a1,-30448
a0801474:	00621021 	addu	v0,v1,v0
a0801478:	ac440158 	sw	a0,344(v0)
a080147c:	8fc3001c 	lw	v1,28(s8)
a0801480:	8fc2001c 	lw	v0,28(s8)
a0801484:	24440001 	addiu	a0,v0,1
a0801488:	3c02a081 	lui	v0,0xa081
a080148c:	24458910 	addiu	a1,v0,-30448
a0801490:	00601021 	move	v0,v1
a0801494:	000218c0 	sll	v1,v0,0x3
a0801498:	00031080 	sll	v0,v1,0x2
a080149c:	00431023 	subu	v0,v0,v1
a08014a0:	00021900 	sll	v1,v0,0x4
a08014a4:	00621023 	subu	v0,v1,v0
a08014a8:	00a21021 	addu	v0,a1,v0
a08014ac:	ac440154 	sw	a0,340(v0)
a08014b0:	8fc2001c 	lw	v0,28(s8)
a08014b4:	3c04a081 	lui	a0,0xa081
a08014b8:	000218c0 	sll	v1,v0,0x3
a08014bc:	00031080 	sll	v0,v1,0x2
a08014c0:	00431023 	subu	v0,v0,v1
a08014c4:	00021900 	sll	v1,v0,0x4
a08014c8:	00621823 	subu	v1,v1,v0
a08014cc:	24828910 	addiu	v0,a0,-30448
a08014d0:	00621021 	addu	v0,v1,v0
a08014d4:	ac400140 	sw	zero,320(v0)
a08014d8:	8fc3001c 	lw	v1,28(s8)
a08014dc:	3c02a081 	lui	v0,0xa081
a08014e0:	24448910 	addiu	a0,v0,-30448
a08014e4:	00601021 	move	v0,v1
a08014e8:	000218c0 	sll	v1,v0,0x3
a08014ec:	00031080 	sll	v0,v1,0x2
a08014f0:	00431023 	subu	v0,v0,v1
a08014f4:	00021900 	sll	v1,v0,0x4
a08014f8:	00621023 	subu	v0,v1,v0
a08014fc:	00821021 	addu	v0,a0,v0
a0801500:	24030002 	li	v1,2
a0801504:	ac43015c 	sw	v1,348(v0)
a0801508:	8fc2001c 	lw	v0,28(s8)
a080150c:	000210c0 	sll	v0,v0,0x3
a0801510:	00021880 	sll	v1,v0,0x2
a0801514:	00621823 	subu	v1,v1,v0
a0801518:	00031100 	sll	v0,v1,0x4
a080151c:	00431023 	subu	v0,v0,v1
a0801520:	24430140 	addiu	v1,v0,320
a0801524:	3c02a081 	lui	v0,0xa081
a0801528:	24428910 	addiu	v0,v0,-30448
a080152c:	00621021 	addu	v0,v1,v0
a0801530:	24420004 	addiu	v0,v0,4
a0801534:	00402021 	move	a0,v0
a0801538:	3c02a080 	lui	v0,0xa080
a080153c:	24456064 	addiu	a1,v0,24676
a0801540:	0c20056c 	jal	a08015b0 <list_add_tail>
a0801544:	00000000 	nop
a0801548:	8fc2001c 	lw	v0,28(s8)
a080154c:	24420001 	addiu	v0,v0,1
a0801550:	afc2001c 	sw	v0,28(s8)
a0801554:	3c02a080 	lui	v0,0xa080
a0801558:	8c43632c 	lw	v1,25388(v0)
a080155c:	3c02a080 	lui	v0,0xa080
a0801560:	8c426394 	lw	v0,25492(v0)
a0801564:	00621821 	addu	v1,v1,v0
a0801568:	3c02a080 	lui	v0,0xa080
a080156c:	8c4263f0 	lw	v0,25584(v0)
a0801570:	00621821 	addu	v1,v1,v0
a0801574:	8fc2001c 	lw	v0,28(s8)
a0801578:	0043102a 	slt	v0,v0,v1
a080157c:	1440ff20 	bnez	v0,a0801200 <init_pcb+0x740>
a0801580:	00000000 	nop
a0801584:	3c02a080 	lui	v0,0xa080
a0801588:	3c03a080 	lui	v1,0xa080
a080158c:	24636078 	addiu	v1,v1,24696
a0801590:	ac436598 	sw	v1,26008(v0)
a0801594:	03c0e821 	move	sp,s8
a0801598:	8fbf002c 	lw	ra,44(sp)
a080159c:	8fbe0028 	lw	s8,40(sp)
a08015a0:	8fb00024 	lw	s0,36(sp)
a08015a4:	27bd0030 	addiu	sp,sp,48
a08015a8:	03e00008 	jr	ra
a08015ac:	00000000 	nop

a08015b0 <list_add_tail>:
a08015b0:	27bdffe8 	addiu	sp,sp,-24
a08015b4:	afbf0014 	sw	ra,20(sp)
a08015b8:	afbe0010 	sw	s8,16(sp)
a08015bc:	03a0f021 	move	s8,sp
a08015c0:	afc40018 	sw	a0,24(s8)
a08015c4:	afc5001c 	sw	a1,28(s8)
a08015c8:	8fc2001c 	lw	v0,28(s8)
a08015cc:	8c420004 	lw	v0,4(v0)
a08015d0:	8fc40018 	lw	a0,24(s8)
a08015d4:	00402821 	move	a1,v0
a08015d8:	8fc6001c 	lw	a2,28(s8)
a08015dc:	0c20057f 	jal	a08015fc <_list_add>
a08015e0:	00000000 	nop
a08015e4:	03c0e821 	move	sp,s8
a08015e8:	8fbf0014 	lw	ra,20(sp)
a08015ec:	8fbe0010 	lw	s8,16(sp)
a08015f0:	27bd0018 	addiu	sp,sp,24
a08015f4:	03e00008 	jr	ra
a08015f8:	00000000 	nop

a08015fc <_list_add>:
a08015fc:	27bdfff8 	addiu	sp,sp,-8
a0801600:	afbe0004 	sw	s8,4(sp)
a0801604:	03a0f021 	move	s8,sp
a0801608:	afc40008 	sw	a0,8(s8)
a080160c:	afc5000c 	sw	a1,12(s8)
a0801610:	afc60010 	sw	a2,16(s8)
a0801614:	8fc30010 	lw	v1,16(s8)
a0801618:	8fc20008 	lw	v0,8(s8)
a080161c:	ac620004 	sw	v0,4(v1)
a0801620:	8fc30008 	lw	v1,8(s8)
a0801624:	8fc20010 	lw	v0,16(s8)
a0801628:	ac620000 	sw	v0,0(v1)
a080162c:	8fc30008 	lw	v1,8(s8)
a0801630:	8fc2000c 	lw	v0,12(s8)
a0801634:	ac620004 	sw	v0,4(v1)
a0801638:	8fc3000c 	lw	v1,12(s8)
a080163c:	8fc20008 	lw	v0,8(s8)
a0801640:	ac620000 	sw	v0,0(v1)
a0801644:	03c0e821 	move	sp,s8
a0801648:	8fbe0004 	lw	s8,4(sp)
a080164c:	27bd0008 	addiu	sp,sp,8
a0801650:	03e00008 	jr	ra
a0801654:	00000000 	nop

a0801658 <init_exception_handler>:
a0801658:	27bdfff8 	addiu	sp,sp,-8
a080165c:	afbe0004 	sw	s8,4(sp)
a0801660:	03a0f021 	move	s8,sp
a0801664:	03c0e821 	move	sp,s8
a0801668:	8fbe0004 	lw	s8,4(sp)
a080166c:	27bd0008 	addiu	sp,sp,8
a0801670:	03e00008 	jr	ra
a0801674:	00000000 	nop

a0801678 <init_exception>:
a0801678:	27bdffe0 	addiu	sp,sp,-32
a080167c:	afbf001c 	sw	ra,28(sp)
a0801680:	afbe0018 	sw	s8,24(sp)
a0801684:	03a0f021 	move	s8,sp
a0801688:	0c2000bd 	jal	a08002f4 <get_status>
a080168c:	00000000 	nop
a0801690:	afc20010 	sw	v0,16(s8)
a0801694:	8fc40010 	lw	a0,16(s8)
a0801698:	0c2000c0 	jal	a0800300 <init_status>
a080169c:	00000000 	nop
a08016a0:	0c2000bd 	jal	a08002f4 <get_status>
a08016a4:	00000000 	nop
a08016a8:	afc20010 	sw	v0,16(s8)
a08016ac:	0c2000d4 	jal	a0800350 <copy_exception_entry>
a08016b0:	00000000 	nop
a08016b4:	3c020004 	lui	v0,0x4
a08016b8:	344493e0 	ori	a0,v0,0x93e0
a08016bc:	0c2000e3 	jal	a080038c <reset_timer>
a08016c0:	00000000 	nop
a08016c4:	03c0e821 	move	sp,s8
a08016c8:	8fbf001c 	lw	ra,28(sp)
a08016cc:	8fbe0018 	lw	s8,24(sp)
a08016d0:	27bd0020 	addiu	sp,sp,32
a08016d4:	03e00008 	jr	ra
a08016d8:	00000000 	nop

a08016dc <init_syscall>:
a08016dc:	27bdfff8 	addiu	sp,sp,-8
a08016e0:	afbe0004 	sw	s8,4(sp)
a08016e4:	03a0f021 	move	s8,sp
a08016e8:	3c02a080 	lui	v0,0xa080
a08016ec:	24432668 	addiu	v1,v0,9832
a08016f0:	3c02a081 	lui	v0,0xa081
a08016f4:	24429f90 	addiu	v0,v0,-24688
a08016f8:	ac430008 	sw	v1,8(v0)
a08016fc:	3c02a080 	lui	v0,0xa080
a0801700:	24431bb0 	addiu	v1,v0,7088
a0801704:	3c02a081 	lui	v0,0xa081
a0801708:	24429f90 	addiu	v0,v0,-24688
a080170c:	ac430050 	sw	v1,80(v0)
a0801710:	3c02a080 	lui	v0,0xa080
a0801714:	24431c38 	addiu	v1,v0,7224
a0801718:	3c02a081 	lui	v0,0xa081
a080171c:	24429f90 	addiu	v0,v0,-24688
a0801720:	ac43005c 	sw	v1,92(v0)
a0801724:	3c02a080 	lui	v0,0xa080
a0801728:	24431b48 	addiu	v1,v0,6984
a080172c:	3c02a081 	lui	v0,0xa081
a0801730:	24429f90 	addiu	v0,v0,-24688
a0801734:	ac430058 	sw	v1,88(v0)
a0801738:	3c02a080 	lui	v0,0xa080
a080173c:	244322f4 	addiu	v1,v0,8948
a0801740:	3c02a081 	lui	v0,0xa081
a0801744:	24429f90 	addiu	v0,v0,-24688
a0801748:	ac430028 	sw	v1,40(v0)
a080174c:	3c02a080 	lui	v0,0xa080
a0801750:	244323e8 	addiu	v1,v0,9192
a0801754:	3c02a081 	lui	v0,0xa081
a0801758:	24429f90 	addiu	v0,v0,-24688
a080175c:	ac43002c 	sw	v1,44(v0)
a0801760:	3c02a080 	lui	v0,0xa080
a0801764:	24432e38 	addiu	v1,v0,11832
a0801768:	3c02a081 	lui	v0,0xa081
a080176c:	24429f90 	addiu	v0,v0,-24688
a0801770:	ac43007c 	sw	v1,124(v0)
a0801774:	3c02a080 	lui	v0,0xa080
a0801778:	24432ec4 	addiu	v1,v0,11972
a080177c:	3c02a081 	lui	v0,0xa081
a0801780:	24429f90 	addiu	v0,v0,-24688
a0801784:	ac430078 	sw	v1,120(v0)
a0801788:	03c0e821 	move	sp,s8
a080178c:	8fbe0004 	lw	s8,4(sp)
a0801790:	27bd0008 	addiu	sp,sp,8
a0801794:	03e00008 	jr	ra
a0801798:	00000000 	nop
a080179c:	00000000 	nop

a08017a0 <irq_timer>:
a08017a0:	27bdffe8 	addiu	sp,sp,-24
a08017a4:	afbf0014 	sw	ra,20(sp)
a08017a8:	afbe0010 	sw	s8,16(sp)
a08017ac:	03a0f021 	move	s8,sp
a08017b0:	0c20070e 	jal	a0801c38 <screen_reflush>
a08017b4:	00000000 	nop
a08017b8:	0c200b55 	jal	a0802d54 <timer_check>
a08017bc:	00000000 	nop
a08017c0:	3c020009 	lui	v0,0x9
a08017c4:	344427c0 	ori	a0,v0,0x27c0
a08017c8:	0c2000e9 	jal	a08003a4 <set_timeslice>
a08017cc:	00000000 	nop
a08017d0:	0c200114 	jal	a0800450 <do_scheduler>
a08017d4:	00000000 	nop
a08017d8:	03c0e821 	move	sp,s8
a08017dc:	8fbf0014 	lw	ra,20(sp)
a08017e0:	8fbe0010 	lw	s8,16(sp)
a08017e4:	27bd0018 	addiu	sp,sp,24
a08017e8:	03e00008 	jr	ra
a08017ec:	00000000 	nop

a08017f0 <interrupt_helper>:
a08017f0:	27bdffe0 	addiu	sp,sp,-32
a08017f4:	afbf001c 	sw	ra,28(sp)
a08017f8:	afbe0018 	sw	s8,24(sp)
a08017fc:	03a0f021 	move	s8,sp
a0801800:	afc40020 	sw	a0,32(s8)
a0801804:	afc50024 	sw	a1,36(s8)
a0801808:	3402ff00 	li	v0,0xff00
a080180c:	afc20010 	sw	v0,16(s8)
a0801810:	8fc30010 	lw	v1,16(s8)
a0801814:	8fc20024 	lw	v0,36(s8)
a0801818:	00621024 	and	v0,v1,v0
a080181c:	afc20010 	sw	v0,16(s8)
a0801820:	8fc30010 	lw	v1,16(s8)
a0801824:	34028000 	li	v0,0x8000
a0801828:	14620005 	bne	v1,v0,a0801840 <interrupt_helper+0x50>
a080182c:	00000000 	nop
a0801830:	0c2005e8 	jal	a08017a0 <irq_timer>
a0801834:	00000000 	nop
a0801838:	08200612 	j	a0801848 <interrupt_helper+0x58>
a080183c:	00000000 	nop
a0801840:	0c200618 	jal	a0801860 <other_exception_handler>
a0801844:	00000000 	nop
a0801848:	03c0e821 	move	sp,s8
a080184c:	8fbf001c 	lw	ra,28(sp)
a0801850:	8fbe0018 	lw	s8,24(sp)
a0801854:	27bd0020 	addiu	sp,sp,32
a0801858:	03e00008 	jr	ra
a080185c:	00000000 	nop

a0801860 <other_exception_handler>:
a0801860:	27bdfff8 	addiu	sp,sp,-8
a0801864:	afbe0004 	sw	s8,4(sp)
a0801868:	03a0f021 	move	s8,sp
a080186c:	03c0e821 	move	sp,s8
a0801870:	8fbe0004 	lw	s8,4(sp)
a0801874:	27bd0008 	addiu	sp,sp,8
a0801878:	03e00008 	jr	ra
a080187c:	00000000 	nop

a0801880 <vt100_move_cursor>:
a0801880:	27bdffe8 	addiu	sp,sp,-24
a0801884:	afbf0014 	sw	ra,20(sp)
a0801888:	afbe0010 	sw	s8,16(sp)
a080188c:	03a0f021 	move	s8,sp
a0801890:	afc40018 	sw	a0,24(s8)
a0801894:	afc5001c 	sw	a1,28(s8)
a0801898:	0c200106 	jal	a0800418 <disable_preempt>
a080189c:	00000000 	nop
a08018a0:	3c02a080 	lui	v0,0xa080
a08018a4:	24445d70 	addiu	a0,v0,23920
a08018a8:	2405001b 	li	a1,27
a08018ac:	8fc6001c 	lw	a2,28(s8)
a08018b0:	8fc70018 	lw	a3,24(s8)
a08018b4:	0c200f66 	jal	a0803d98 <printk>
a08018b8:	00000000 	nop
a08018bc:	3c02a080 	lui	v0,0xa080
a08018c0:	8c436598 	lw	v1,26008(v0)
a08018c4:	8fc20018 	lw	v0,24(s8)
a08018c8:	ac620160 	sw	v0,352(v1)
a08018cc:	3c02a080 	lui	v0,0xa080
a08018d0:	8c436598 	lw	v1,26008(v0)
a08018d4:	8fc2001c 	lw	v0,28(s8)
a08018d8:	ac620164 	sw	v0,356(v1)
a08018dc:	0c2000f2 	jal	a08003c8 <enable_preempt>
a08018e0:	00000000 	nop
a08018e4:	03c0e821 	move	sp,s8
a08018e8:	8fbf0014 	lw	ra,20(sp)
a08018ec:	8fbe0010 	lw	s8,16(sp)
a08018f0:	27bd0018 	addiu	sp,sp,24
a08018f4:	03e00008 	jr	ra
a08018f8:	00000000 	nop

a08018fc <vt100_clear>:
a08018fc:	27bdffe8 	addiu	sp,sp,-24
a0801900:	afbf0014 	sw	ra,20(sp)
a0801904:	afbe0010 	sw	s8,16(sp)
a0801908:	03a0f021 	move	s8,sp
a080190c:	3c02a080 	lui	v0,0xa080
a0801910:	24445d7c 	addiu	a0,v0,23932
a0801914:	2405001b 	li	a1,27
a0801918:	0c200f66 	jal	a0803d98 <printk>
a080191c:	00000000 	nop
a0801920:	03c0e821 	move	sp,s8
a0801924:	8fbf0014 	lw	ra,20(sp)
a0801928:	8fbe0010 	lw	s8,16(sp)
a080192c:	27bd0018 	addiu	sp,sp,24
a0801930:	03e00008 	jr	ra
a0801934:	00000000 	nop

a0801938 <vt100_hidden_cursor>:
a0801938:	27bdffe8 	addiu	sp,sp,-24
a080193c:	afbf0014 	sw	ra,20(sp)
a0801940:	afbe0010 	sw	s8,16(sp)
a0801944:	03a0f021 	move	s8,sp
a0801948:	3c02a080 	lui	v0,0xa080
a080194c:	24445d84 	addiu	a0,v0,23940
a0801950:	2405001b 	li	a1,27
a0801954:	0c200f66 	jal	a0803d98 <printk>
a0801958:	00000000 	nop
a080195c:	03c0e821 	move	sp,s8
a0801960:	8fbf0014 	lw	ra,20(sp)
a0801964:	8fbe0010 	lw	s8,16(sp)
a0801968:	27bd0018 	addiu	sp,sp,24
a080196c:	03e00008 	jr	ra
a0801970:	00000000 	nop

a0801974 <screen_write_ch>:
a0801974:	27bdfff8 	addiu	sp,sp,-8
a0801978:	afbe0004 	sw	s8,4(sp)
a080197c:	03a0f021 	move	s8,sp
a0801980:	00801021 	move	v0,a0
a0801984:	a3c20008 	sb	v0,8(s8)
a0801988:	83c30008 	lb	v1,8(s8)
a080198c:	2402000a 	li	v0,10
a0801990:	1462000b 	bne	v1,v0,a08019c0 <screen_write_ch+0x4c>
a0801994:	00000000 	nop
a0801998:	3c03a080 	lui	v1,0xa080
a080199c:	24020001 	li	v0,1
a08019a0:	ac626590 	sw	v0,26000(v1)
a08019a4:	3c02a080 	lui	v0,0xa080
a08019a8:	8c426594 	lw	v0,26004(v0)
a08019ac:	24430001 	addiu	v1,v0,1
a08019b0:	3c02a080 	lui	v0,0xa080
a08019b4:	ac436594 	sw	v1,26004(v0)
a08019b8:	08200684 	j	a0801a10 <screen_write_ch+0x9c>
a08019bc:	00000000 	nop
a08019c0:	3c02a080 	lui	v0,0xa080
a08019c4:	8c426594 	lw	v0,26004(v0)
a08019c8:	00021900 	sll	v1,v0,0x4
a08019cc:	00031080 	sll	v0,v1,0x2
a08019d0:	00621021 	addu	v0,v1,v0
a08019d4:	2443ffb0 	addiu	v1,v0,-80
a08019d8:	3c02a080 	lui	v0,0xa080
a08019dc:	8c426590 	lw	v0,26000(v0)
a08019e0:	2442ffff 	addiu	v0,v0,-1
a08019e4:	00621821 	addu	v1,v1,v0
a08019e8:	3c02a080 	lui	v0,0xa080
a08019ec:	244265a0 	addiu	v0,v0,26016
a08019f0:	00621821 	addu	v1,v1,v0
a08019f4:	93c20008 	lbu	v0,8(s8)
a08019f8:	a0620000 	sb	v0,0(v1)
a08019fc:	3c02a080 	lui	v0,0xa080
a0801a00:	8c426590 	lw	v0,26000(v0)
a0801a04:	24430001 	addiu	v1,v0,1
a0801a08:	3c02a080 	lui	v0,0xa080
a0801a0c:	ac436590 	sw	v1,26000(v0)
a0801a10:	3c02a080 	lui	v0,0xa080
a0801a14:	8c436598 	lw	v1,26008(v0)
a0801a18:	3c02a080 	lui	v0,0xa080
a0801a1c:	8c426590 	lw	v0,26000(v0)
a0801a20:	ac620160 	sw	v0,352(v1)
a0801a24:	3c02a080 	lui	v0,0xa080
a0801a28:	8c436598 	lw	v1,26008(v0)
a0801a2c:	3c02a080 	lui	v0,0xa080
a0801a30:	8c426594 	lw	v0,26004(v0)
a0801a34:	ac620164 	sw	v0,356(v1)
a0801a38:	03c0e821 	move	sp,s8
a0801a3c:	8fbe0004 	lw	s8,4(sp)
a0801a40:	27bd0008 	addiu	sp,sp,8
a0801a44:	03e00008 	jr	ra
a0801a48:	00000000 	nop

a0801a4c <init_screen>:
a0801a4c:	27bdffe8 	addiu	sp,sp,-24
a0801a50:	afbf0014 	sw	ra,20(sp)
a0801a54:	afbe0010 	sw	s8,16(sp)
a0801a58:	03a0f021 	move	s8,sp
a0801a5c:	0c20064e 	jal	a0801938 <vt100_hidden_cursor>
a0801a60:	00000000 	nop
a0801a64:	0c20063f 	jal	a08018fc <vt100_clear>
a0801a68:	00000000 	nop
a0801a6c:	03c0e821 	move	sp,s8
a0801a70:	8fbf0014 	lw	ra,20(sp)
a0801a74:	8fbe0010 	lw	s8,16(sp)
a0801a78:	27bd0018 	addiu	sp,sp,24
a0801a7c:	03e00008 	jr	ra
a0801a80:	00000000 	nop

a0801a84 <screen_clear>:
a0801a84:	27bdffe0 	addiu	sp,sp,-32
a0801a88:	afbf001c 	sw	ra,28(sp)
a0801a8c:	afbe0018 	sw	s8,24(sp)
a0801a90:	03a0f021 	move	s8,sp
a0801a94:	afc00014 	sw	zero,20(s8)
a0801a98:	082006c0 	j	a0801b00 <screen_clear+0x7c>
a0801a9c:	00000000 	nop
a0801aa0:	afc00010 	sw	zero,16(s8)
a0801aa4:	082006b9 	j	a0801ae4 <screen_clear+0x60>
a0801aa8:	00000000 	nop
a0801aac:	8fc20014 	lw	v0,20(s8)
a0801ab0:	00021900 	sll	v1,v0,0x4
a0801ab4:	00031080 	sll	v0,v1,0x2
a0801ab8:	00621821 	addu	v1,v1,v0
a0801abc:	8fc20010 	lw	v0,16(s8)
a0801ac0:	00621821 	addu	v1,v1,v0
a0801ac4:	3c02a080 	lui	v0,0xa080
a0801ac8:	244265a0 	addiu	v0,v0,26016
a0801acc:	00621821 	addu	v1,v1,v0
a0801ad0:	24020020 	li	v0,32
a0801ad4:	a0620000 	sb	v0,0(v1)
a0801ad8:	8fc20010 	lw	v0,16(s8)
a0801adc:	24420001 	addiu	v0,v0,1
a0801ae0:	afc20010 	sw	v0,16(s8)
a0801ae4:	8fc20010 	lw	v0,16(s8)
a0801ae8:	28420050 	slti	v0,v0,80
a0801aec:	1440ffef 	bnez	v0,a0801aac <screen_clear+0x28>
a0801af0:	00000000 	nop
a0801af4:	8fc20014 	lw	v0,20(s8)
a0801af8:	24420001 	addiu	v0,v0,1
a0801afc:	afc20014 	sw	v0,20(s8)
a0801b00:	8fc20014 	lw	v0,20(s8)
a0801b04:	28420032 	slti	v0,v0,50
a0801b08:	1440ffe5 	bnez	v0,a0801aa0 <screen_clear+0x1c>
a0801b0c:	00000000 	nop
a0801b10:	3c03a080 	lui	v1,0xa080
a0801b14:	24020001 	li	v0,1
a0801b18:	ac626590 	sw	v0,26000(v1)
a0801b1c:	3c03a080 	lui	v1,0xa080
a0801b20:	24020001 	li	v0,1
a0801b24:	ac626594 	sw	v0,26004(v1)
a0801b28:	0c20070e 	jal	a0801c38 <screen_reflush>
a0801b2c:	00000000 	nop
a0801b30:	03c0e821 	move	sp,s8
a0801b34:	8fbf001c 	lw	ra,28(sp)
a0801b38:	8fbe0018 	lw	s8,24(sp)
a0801b3c:	27bd0020 	addiu	sp,sp,32
a0801b40:	03e00008 	jr	ra
a0801b44:	00000000 	nop

a0801b48 <screen_move_cursor>:
a0801b48:	27bdfff8 	addiu	sp,sp,-8
a0801b4c:	afbe0004 	sw	s8,4(sp)
a0801b50:	03a0f021 	move	s8,sp
a0801b54:	afc40008 	sw	a0,8(s8)
a0801b58:	afc5000c 	sw	a1,12(s8)
a0801b5c:	3c03a080 	lui	v1,0xa080
a0801b60:	8fc20008 	lw	v0,8(s8)
a0801b64:	ac626590 	sw	v0,26000(v1)
a0801b68:	3c03a080 	lui	v1,0xa080
a0801b6c:	8fc2000c 	lw	v0,12(s8)
a0801b70:	ac626594 	sw	v0,26004(v1)
a0801b74:	3c02a080 	lui	v0,0xa080
a0801b78:	8c436598 	lw	v1,26008(v0)
a0801b7c:	3c02a080 	lui	v0,0xa080
a0801b80:	8c426590 	lw	v0,26000(v0)
a0801b84:	ac620160 	sw	v0,352(v1)
a0801b88:	3c02a080 	lui	v0,0xa080
a0801b8c:	8c436598 	lw	v1,26008(v0)
a0801b90:	3c02a080 	lui	v0,0xa080
a0801b94:	8c426594 	lw	v0,26004(v0)
a0801b98:	ac620164 	sw	v0,356(v1)
a0801b9c:	03c0e821 	move	sp,s8
a0801ba0:	8fbe0004 	lw	s8,4(sp)
a0801ba4:	27bd0008 	addiu	sp,sp,8
a0801ba8:	03e00008 	jr	ra
a0801bac:	00000000 	nop

a0801bb0 <screen_write>:
a0801bb0:	27bdffe0 	addiu	sp,sp,-32
a0801bb4:	afbf001c 	sw	ra,28(sp)
a0801bb8:	afbe0018 	sw	s8,24(sp)
a0801bbc:	03a0f021 	move	s8,sp
a0801bc0:	afc40020 	sw	a0,32(s8)
a0801bc4:	afc00014 	sw	zero,20(s8)
a0801bc8:	8fc40020 	lw	a0,32(s8)
a0801bcc:	0c200c24 	jal	a0803090 <kstrlen>
a0801bd0:	00000000 	nop
a0801bd4:	afc20010 	sw	v0,16(s8)
a0801bd8:	afc00014 	sw	zero,20(s8)
a0801bdc:	08200703 	j	a0801c0c <screen_write+0x5c>
a0801be0:	00000000 	nop
a0801be4:	8fc30014 	lw	v1,20(s8)
a0801be8:	8fc20020 	lw	v0,32(s8)
a0801bec:	00431021 	addu	v0,v0,v1
a0801bf0:	80420000 	lb	v0,0(v0)
a0801bf4:	00402021 	move	a0,v0
a0801bf8:	0c20065d 	jal	a0801974 <screen_write_ch>
a0801bfc:	00000000 	nop
a0801c00:	8fc20014 	lw	v0,20(s8)
a0801c04:	24420001 	addiu	v0,v0,1
a0801c08:	afc20014 	sw	v0,20(s8)
a0801c0c:	8fc20014 	lw	v0,20(s8)
a0801c10:	8fc30010 	lw	v1,16(s8)
a0801c14:	0043102a 	slt	v0,v0,v1
a0801c18:	1440fff2 	bnez	v0,a0801be4 <screen_write+0x34>
a0801c1c:	00000000 	nop
a0801c20:	03c0e821 	move	sp,s8
a0801c24:	8fbf001c 	lw	ra,28(sp)
a0801c28:	8fbe0018 	lw	s8,24(sp)
a0801c2c:	27bd0020 	addiu	sp,sp,32
a0801c30:	03e00008 	jr	ra
a0801c34:	00000000 	nop

a0801c38 <screen_reflush>:
a0801c38:	27bdffe0 	addiu	sp,sp,-32
a0801c3c:	afbf001c 	sw	ra,28(sp)
a0801c40:	afbe0018 	sw	s8,24(sp)
a0801c44:	03a0f021 	move	s8,sp
a0801c48:	afc00014 	sw	zero,20(s8)
a0801c4c:	08200761 	j	a0801d84 <screen_reflush+0x14c>
a0801c50:	00000000 	nop
a0801c54:	afc00010 	sw	zero,16(s8)
a0801c58:	0820075a 	j	a0801d68 <screen_reflush+0x130>
a0801c5c:	00000000 	nop
a0801c60:	8fc20014 	lw	v0,20(s8)
a0801c64:	00021900 	sll	v1,v0,0x4
a0801c68:	00031080 	sll	v0,v1,0x2
a0801c6c:	00621821 	addu	v1,v1,v0
a0801c70:	8fc20010 	lw	v0,16(s8)
a0801c74:	00621821 	addu	v1,v1,v0
a0801c78:	3c02a080 	lui	v0,0xa080
a0801c7c:	244265a0 	addiu	v0,v0,26016
a0801c80:	00621021 	addu	v0,v1,v0
a0801c84:	80440000 	lb	a0,0(v0)
a0801c88:	8fc20014 	lw	v0,20(s8)
a0801c8c:	00021900 	sll	v1,v0,0x4
a0801c90:	00031080 	sll	v0,v1,0x2
a0801c94:	00621821 	addu	v1,v1,v0
a0801c98:	8fc20010 	lw	v0,16(s8)
a0801c9c:	00621821 	addu	v1,v1,v0
a0801ca0:	3c02a080 	lui	v0,0xa080
a0801ca4:	24427540 	addiu	v0,v0,30016
a0801ca8:	00621021 	addu	v0,v1,v0
a0801cac:	80420000 	lb	v0,0(v0)
a0801cb0:	1082002a 	beq	a0,v0,a0801d5c <screen_reflush+0x124>
a0801cb4:	00000000 	nop
a0801cb8:	8fc20010 	lw	v0,16(s8)
a0801cbc:	24430001 	addiu	v1,v0,1
a0801cc0:	8fc20014 	lw	v0,20(s8)
a0801cc4:	24420001 	addiu	v0,v0,1
a0801cc8:	00602021 	move	a0,v1
a0801ccc:	00402821 	move	a1,v0
a0801cd0:	0c200620 	jal	a0801880 <vt100_move_cursor>
a0801cd4:	00000000 	nop
a0801cd8:	8fc20014 	lw	v0,20(s8)
a0801cdc:	00021900 	sll	v1,v0,0x4
a0801ce0:	00031080 	sll	v0,v1,0x2
a0801ce4:	00621821 	addu	v1,v1,v0
a0801ce8:	8fc20010 	lw	v0,16(s8)
a0801cec:	00621821 	addu	v1,v1,v0
a0801cf0:	3c02a080 	lui	v0,0xa080
a0801cf4:	244265a0 	addiu	v0,v0,26016
a0801cf8:	00621021 	addu	v0,v1,v0
a0801cfc:	80420000 	lb	v0,0(v0)
a0801d00:	00402021 	move	a0,v0
a0801d04:	0c200288 	jal	a0800a20 <port_write_ch>
a0801d08:	00000000 	nop
a0801d0c:	8fc20014 	lw	v0,20(s8)
a0801d10:	00021900 	sll	v1,v0,0x4
a0801d14:	00031080 	sll	v0,v1,0x2
a0801d18:	00621821 	addu	v1,v1,v0
a0801d1c:	8fc20010 	lw	v0,16(s8)
a0801d20:	00622021 	addu	a0,v1,v0
a0801d24:	8fc20014 	lw	v0,20(s8)
a0801d28:	00021900 	sll	v1,v0,0x4
a0801d2c:	00031080 	sll	v0,v1,0x2
a0801d30:	00621821 	addu	v1,v1,v0
a0801d34:	8fc20010 	lw	v0,16(s8)
a0801d38:	00621821 	addu	v1,v1,v0
a0801d3c:	3c02a080 	lui	v0,0xa080
a0801d40:	244265a0 	addiu	v0,v0,26016
a0801d44:	00621021 	addu	v0,v1,v0
a0801d48:	80430000 	lb	v1,0(v0)
a0801d4c:	3c02a080 	lui	v0,0xa080
a0801d50:	24427540 	addiu	v0,v0,30016
a0801d54:	00821021 	addu	v0,a0,v0
a0801d58:	a0430000 	sb	v1,0(v0)
a0801d5c:	8fc20010 	lw	v0,16(s8)
a0801d60:	24420001 	addiu	v0,v0,1
a0801d64:	afc20010 	sw	v0,16(s8)
a0801d68:	8fc20010 	lw	v0,16(s8)
a0801d6c:	28420050 	slti	v0,v0,80
a0801d70:	1440ffbb 	bnez	v0,a0801c60 <screen_reflush+0x28>
a0801d74:	00000000 	nop
a0801d78:	8fc20014 	lw	v0,20(s8)
a0801d7c:	24420001 	addiu	v0,v0,1
a0801d80:	afc20014 	sw	v0,20(s8)
a0801d84:	8fc20014 	lw	v0,20(s8)
a0801d88:	28420032 	slti	v0,v0,50
a0801d8c:	1440ffb1 	bnez	v0,a0801c54 <screen_reflush+0x1c>
a0801d90:	00000000 	nop
a0801d94:	3c02a080 	lui	v0,0xa080
a0801d98:	8c436590 	lw	v1,26000(v0)
a0801d9c:	3c02a080 	lui	v0,0xa080
a0801da0:	8c426594 	lw	v0,26004(v0)
a0801da4:	00602021 	move	a0,v1
a0801da8:	00402821 	move	a1,v0
a0801dac:	0c200620 	jal	a0801880 <vt100_move_cursor>
a0801db0:	00000000 	nop
a0801db4:	03c0e821 	move	sp,s8
a0801db8:	8fbf001c 	lw	ra,28(sp)
a0801dbc:	8fbe0018 	lw	s8,24(sp)
a0801dc0:	27bd0020 	addiu	sp,sp,32
a0801dc4:	03e00008 	jr	ra
a0801dc8:	00000000 	nop
a0801dcc:	00000000 	nop

a0801dd0 <spin_lock_init>:
a0801dd0:	27bdfff8 	addiu	sp,sp,-8
a0801dd4:	afbe0004 	sw	s8,4(sp)
a0801dd8:	03a0f021 	move	s8,sp
a0801ddc:	afc40008 	sw	a0,8(s8)
a0801de0:	8fc20008 	lw	v0,8(s8)
a0801de4:	ac400000 	sw	zero,0(v0)
a0801de8:	03c0e821 	move	sp,s8
a0801dec:	8fbe0004 	lw	s8,4(sp)
a0801df0:	27bd0008 	addiu	sp,sp,8
a0801df4:	03e00008 	jr	ra
a0801df8:	00000000 	nop

a0801dfc <spin_lock_try_acquire>:
a0801dfc:	27bdfff8 	addiu	sp,sp,-8
a0801e00:	afbe0004 	sw	s8,4(sp)
a0801e04:	03a0f021 	move	s8,sp
a0801e08:	afc40008 	sw	a0,8(s8)
a0801e0c:	00001021 	move	v0,zero
a0801e10:	03c0e821 	move	sp,s8
a0801e14:	8fbe0004 	lw	s8,4(sp)
a0801e18:	27bd0008 	addiu	sp,sp,8
a0801e1c:	03e00008 	jr	ra
a0801e20:	00000000 	nop

a0801e24 <spin_lock_acquire>:
a0801e24:	27bdffe8 	addiu	sp,sp,-24
a0801e28:	afbf0014 	sw	ra,20(sp)
a0801e2c:	afbe0010 	sw	s8,16(sp)
a0801e30:	03a0f021 	move	s8,sp
a0801e34:	afc40018 	sw	a0,24(s8)
a0801e38:	8fc40018 	lw	a0,24(s8)
a0801e3c:	0c20077f 	jal	a0801dfc <spin_lock_try_acquire>
a0801e40:	00000000 	nop
a0801e44:	1440fffc 	bnez	v0,a0801e38 <spin_lock_acquire+0x14>
a0801e48:	00000000 	nop
a0801e4c:	03c0e821 	move	sp,s8
a0801e50:	8fbf0014 	lw	ra,20(sp)
a0801e54:	8fbe0010 	lw	s8,16(sp)
a0801e58:	27bd0018 	addiu	sp,sp,24
a0801e5c:	03e00008 	jr	ra
a0801e60:	00000000 	nop

a0801e64 <spin_lock_release>:
a0801e64:	27bdfff8 	addiu	sp,sp,-8
a0801e68:	afbe0004 	sw	s8,4(sp)
a0801e6c:	03a0f021 	move	s8,sp
a0801e70:	afc40008 	sw	a0,8(s8)
a0801e74:	8fc20008 	lw	v0,8(s8)
a0801e78:	ac400000 	sw	zero,0(v0)
a0801e7c:	03c0e821 	move	sp,s8
a0801e80:	8fbe0004 	lw	s8,4(sp)
a0801e84:	27bd0008 	addiu	sp,sp,8
a0801e88:	03e00008 	jr	ra
a0801e8c:	00000000 	nop

a0801e90 <do_mutex_lock_init>:
a0801e90:	27bdffe8 	addiu	sp,sp,-24
a0801e94:	afbf0014 	sw	ra,20(sp)
a0801e98:	afbe0010 	sw	s8,16(sp)
a0801e9c:	03a0f021 	move	s8,sp
a0801ea0:	afc40018 	sw	a0,24(s8)
a0801ea4:	8fc20018 	lw	v0,24(s8)
a0801ea8:	00402021 	move	a0,v0
a0801eac:	0c200774 	jal	a0801dd0 <spin_lock_init>
a0801eb0:	00000000 	nop
a0801eb4:	8fc20018 	lw	v0,24(s8)
a0801eb8:	24420004 	addiu	v0,v0,4
a0801ebc:	00402021 	move	a0,v0
a0801ec0:	0c2007b8 	jal	a0801ee0 <init_list_head>
a0801ec4:	00000000 	nop
a0801ec8:	03c0e821 	move	sp,s8
a0801ecc:	8fbf0014 	lw	ra,20(sp)
a0801ed0:	8fbe0010 	lw	s8,16(sp)
a0801ed4:	27bd0018 	addiu	sp,sp,24
a0801ed8:	03e00008 	jr	ra
a0801edc:	00000000 	nop

a0801ee0 <init_list_head>:
a0801ee0:	27bdfff8 	addiu	sp,sp,-8
a0801ee4:	afbe0004 	sw	s8,4(sp)
a0801ee8:	03a0f021 	move	s8,sp
a0801eec:	afc40008 	sw	a0,8(s8)
a0801ef0:	8fc30008 	lw	v1,8(s8)
a0801ef4:	8fc20008 	lw	v0,8(s8)
a0801ef8:	ac620000 	sw	v0,0(v1)
a0801efc:	8fc30008 	lw	v1,8(s8)
a0801f00:	8fc20008 	lw	v0,8(s8)
a0801f04:	ac620004 	sw	v0,4(v1)
a0801f08:	03c0e821 	move	sp,s8
a0801f0c:	8fbe0004 	lw	s8,4(sp)
a0801f10:	27bd0008 	addiu	sp,sp,8
a0801f14:	03e00008 	jr	ra
a0801f18:	00000000 	nop

a0801f1c <do_mutex_lock_acquire>:
a0801f1c:	27bdfff8 	addiu	sp,sp,-8
a0801f20:	afbe0004 	sw	s8,4(sp)
a0801f24:	03a0f021 	move	s8,sp
a0801f28:	afc40008 	sw	a0,8(s8)
a0801f2c:	03c0e821 	move	sp,s8
a0801f30:	8fbe0004 	lw	s8,4(sp)
a0801f34:	27bd0008 	addiu	sp,sp,8
a0801f38:	03e00008 	jr	ra
a0801f3c:	00000000 	nop

a0801f40 <do_mutex_lock_release>:
a0801f40:	27bdfff8 	addiu	sp,sp,-8
a0801f44:	afbe0004 	sw	s8,4(sp)
a0801f48:	03a0f021 	move	s8,sp
a0801f4c:	afc40008 	sw	a0,8(s8)
a0801f50:	03c0e821 	move	sp,s8
a0801f54:	8fbe0004 	lw	s8,4(sp)
a0801f58:	27bd0008 	addiu	sp,sp,8
a0801f5c:	03e00008 	jr	ra
a0801f60:	00000000 	nop
	...

a0801f70 <init_system_futex>:
a0801f70:	27bdffe0 	addiu	sp,sp,-32
a0801f74:	afbf001c 	sw	ra,28(sp)
a0801f78:	afbe0018 	sw	s8,24(sp)
a0801f7c:	03a0f021 	move	s8,sp
a0801f80:	0c200106 	jal	a0800418 <disable_preempt>
a0801f84:	00000000 	nop
a0801f88:	afc00010 	sw	zero,16(s8)
a0801f8c:	afc00010 	sw	zero,16(s8)
a0801f90:	082007f1 	j	a0801fc4 <init_system_futex+0x54>
a0801f94:	00000000 	nop
a0801f98:	8fc20010 	lw	v0,16(s8)
a0801f9c:	000218c0 	sll	v1,v0,0x3
a0801fa0:	3c02a081 	lui	v0,0xa081
a0801fa4:	24428510 	addiu	v0,v0,-31472
a0801fa8:	00621021 	addu	v0,v1,v0
a0801fac:	00402021 	move	a0,v0
a0801fb0:	0c2007fd 	jal	a0801ff4 <init_list_head>
a0801fb4:	00000000 	nop
a0801fb8:	8fc20010 	lw	v0,16(s8)
a0801fbc:	24420001 	addiu	v0,v0,1
a0801fc0:	afc20010 	sw	v0,16(s8)
a0801fc4:	8fc20010 	lw	v0,16(s8)
a0801fc8:	28420080 	slti	v0,v0,128
a0801fcc:	1440fff2 	bnez	v0,a0801f98 <init_system_futex+0x28>
a0801fd0:	00000000 	nop
a0801fd4:	0c2000f2 	jal	a08003c8 <enable_preempt>
a0801fd8:	00000000 	nop
a0801fdc:	03c0e821 	move	sp,s8
a0801fe0:	8fbf001c 	lw	ra,28(sp)
a0801fe4:	8fbe0018 	lw	s8,24(sp)
a0801fe8:	27bd0020 	addiu	sp,sp,32
a0801fec:	03e00008 	jr	ra
a0801ff0:	00000000 	nop

a0801ff4 <init_list_head>:
a0801ff4:	27bdfff8 	addiu	sp,sp,-8
a0801ff8:	afbe0004 	sw	s8,4(sp)
a0801ffc:	03a0f021 	move	s8,sp
a0802000:	afc40008 	sw	a0,8(s8)
a0802004:	8fc30008 	lw	v1,8(s8)
a0802008:	8fc20008 	lw	v0,8(s8)
a080200c:	ac620000 	sw	v0,0(v1)
a0802010:	8fc30008 	lw	v1,8(s8)
a0802014:	8fc20008 	lw	v0,8(s8)
a0802018:	ac620004 	sw	v0,4(v1)
a080201c:	03c0e821 	move	sp,s8
a0802020:	8fbe0004 	lw	s8,4(sp)
a0802024:	27bd0008 	addiu	sp,sp,8
a0802028:	03e00008 	jr	ra
a080202c:	00000000 	nop

a0802030 <futex_hash>:
a0802030:	27bdffe8 	addiu	sp,sp,-24
a0802034:	afbe0014 	sw	s8,20(sp)
a0802038:	03a0f021 	move	s8,sp
a080203c:	afc40018 	sw	a0,24(s8)
a0802040:	afc0000c 	sw	zero,12(s8)
a0802044:	afc00008 	sw	zero,8(s8)
a0802048:	27c20018 	addiu	v0,s8,24
a080204c:	afc20004 	sw	v0,4(s8)
a0802050:	afc00000 	sw	zero,0(s8)
a0802054:	afc00000 	sw	zero,0(s8)
a0802058:	08200835 	j	a08020d4 <futex_hash+0xa4>
a080205c:	00000000 	nop
a0802060:	8fc2000c 	lw	v0,12(s8)
a0802064:	00021900 	sll	v1,v0,0x4
a0802068:	8fc20004 	lw	v0,4(s8)
a080206c:	80420000 	lb	v0,0(v0)
a0802070:	00621021 	addu	v0,v1,v0
a0802074:	afc2000c 	sw	v0,12(s8)
a0802078:	8fc3000c 	lw	v1,12(s8)
a080207c:	3c02f000 	lui	v0,0xf000
a0802080:	00621024 	and	v0,v1,v0
a0802084:	afc20008 	sw	v0,8(s8)
a0802088:	8fc20008 	lw	v0,8(s8)
a080208c:	1040000b 	beqz	v0,a08020bc <futex_hash+0x8c>
a0802090:	00000000 	nop
a0802094:	8fc20008 	lw	v0,8(s8)
a0802098:	00021e02 	srl	v1,v0,0x18
a080209c:	8fc2000c 	lw	v0,12(s8)
a08020a0:	00431026 	xor	v0,v0,v1
a08020a4:	afc2000c 	sw	v0,12(s8)
a08020a8:	8fc20008 	lw	v0,8(s8)
a08020ac:	00021827 	nor	v1,zero,v0
a08020b0:	8fc2000c 	lw	v0,12(s8)
a08020b4:	00431024 	and	v0,v0,v1
a08020b8:	afc2000c 	sw	v0,12(s8)
a08020bc:	8fc20004 	lw	v0,4(s8)
a08020c0:	24420001 	addiu	v0,v0,1
a08020c4:	afc20004 	sw	v0,4(s8)
a08020c8:	8fc20000 	lw	v0,0(s8)
a08020cc:	24420001 	addiu	v0,v0,1
a08020d0:	afc20000 	sw	v0,0(s8)
a08020d4:	8fc20000 	lw	v0,0(s8)
a08020d8:	28420004 	slti	v0,v0,4
a08020dc:	1440ffe0 	bnez	v0,a0802060 <futex_hash+0x30>
a08020e0:	00000000 	nop
a08020e4:	8fc2000c 	lw	v0,12(s8)
a08020e8:	3042007f 	andi	v0,v0,0x7f
a08020ec:	afc2000c 	sw	v0,12(s8)
a08020f0:	8fc2000c 	lw	v0,12(s8)
a08020f4:	03c0e821 	move	sp,s8
a08020f8:	8fbe0014 	lw	s8,20(sp)
a08020fc:	27bd0018 	addiu	sp,sp,24
a0802100:	03e00008 	jr	ra
a0802104:	00000000 	nop

a0802108 <get_node>:
a0802108:	27bdffc8 	addiu	sp,sp,-56
a080210c:	afbf0034 	sw	ra,52(sp)
a0802110:	afbe0030 	sw	s8,48(sp)
a0802114:	03a0f021 	move	s8,sp
a0802118:	afc40038 	sw	a0,56(s8)
a080211c:	afc5003c 	sw	a1,60(s8)
a0802120:	8fc20038 	lw	v0,56(s8)
a0802124:	00402021 	move	a0,v0
a0802128:	0c20080c 	jal	a0802030 <futex_hash>
a080212c:	00000000 	nop
a0802130:	afc20024 	sw	v0,36(s8)
a0802134:	8fc20024 	lw	v0,36(s8)
a0802138:	000218c0 	sll	v1,v0,0x3
a080213c:	3c02a081 	lui	v0,0xa081
a0802140:	24428510 	addiu	v0,v0,-31472
a0802144:	00621021 	addu	v0,v1,v0
a0802148:	afc20020 	sw	v0,32(s8)
a080214c:	afc0001c 	sw	zero,28(s8)
a0802150:	8fc20020 	lw	v0,32(s8)
a0802154:	8c420000 	lw	v0,0(v0)
a0802158:	afc2001c 	sw	v0,28(s8)
a080215c:	0820086a 	j	a08021a8 <get_node+0xa0>
a0802160:	00000000 	nop
a0802164:	8fc2001c 	lw	v0,28(s8)
a0802168:	afc20014 	sw	v0,20(s8)
a080216c:	8fc20014 	lw	v0,20(s8)
a0802170:	2442fffc 	addiu	v0,v0,-4
a0802174:	afc20018 	sw	v0,24(s8)
a0802178:	8fc20018 	lw	v0,24(s8)
a080217c:	8c430000 	lw	v1,0(v0)
a0802180:	8fc20038 	lw	v0,56(s8)
a0802184:	14620005 	bne	v1,v0,a080219c <get_node+0x94>
a0802188:	00000000 	nop
a080218c:	8fc20018 	lw	v0,24(s8)
a0802190:	afc20028 	sw	v0,40(s8)
a0802194:	0820088c 	j	a0802230 <get_node+0x128>
a0802198:	00000000 	nop
a080219c:	8fc2001c 	lw	v0,28(s8)
a08021a0:	8c420000 	lw	v0,0(v0)
a08021a4:	afc2001c 	sw	v0,28(s8)
a08021a8:	8fc3001c 	lw	v1,28(s8)
a08021ac:	8fc20020 	lw	v0,32(s8)
a08021b0:	1462ffec 	bne	v1,v0,a0802164 <get_node+0x5c>
a08021b4:	00000000 	nop
a08021b8:	8fc2003c 	lw	v0,60(s8)
a08021bc:	1040001b 	beqz	v0,a080222c <get_node+0x124>
a08021c0:	00000000 	nop
a08021c4:	24040014 	li	a0,20
a08021c8:	0c200be9 	jal	a0802fa4 <kmalloc>
a08021cc:	00000000 	nop
a08021d0:	afc20010 	sw	v0,16(s8)
a08021d4:	8fc30038 	lw	v1,56(s8)
a08021d8:	8fc20010 	lw	v0,16(s8)
a08021dc:	ac430000 	sw	v1,0(v0)
a08021e0:	8fc20010 	lw	v0,16(s8)
a08021e4:	2442000c 	addiu	v0,v0,12
a08021e8:	00402021 	move	a0,v0
a08021ec:	0c2007fd 	jal	a0801ff4 <init_list_head>
a08021f0:	00000000 	nop
a08021f4:	8fc20010 	lw	v0,16(s8)
a08021f8:	24440004 	addiu	a0,v0,4
a08021fc:	8fc20024 	lw	v0,36(s8)
a0802200:	000218c0 	sll	v1,v0,0x3
a0802204:	3c02a081 	lui	v0,0xa081
a0802208:	24428510 	addiu	v0,v0,-31472
a080220c:	00621021 	addu	v0,v1,v0
a0802210:	00402821 	move	a1,v0
a0802214:	0c200893 	jal	a080224c <list_add_tail>
a0802218:	00000000 	nop
a080221c:	8fc20010 	lw	v0,16(s8)
a0802220:	afc20028 	sw	v0,40(s8)
a0802224:	0820088c 	j	a0802230 <get_node+0x128>
a0802228:	00000000 	nop
a080222c:	afc00028 	sw	zero,40(s8)
a0802230:	8fc20028 	lw	v0,40(s8)
a0802234:	03c0e821 	move	sp,s8
a0802238:	8fbf0034 	lw	ra,52(sp)
a080223c:	8fbe0030 	lw	s8,48(sp)
a0802240:	27bd0038 	addiu	sp,sp,56
a0802244:	03e00008 	jr	ra
a0802248:	00000000 	nop

a080224c <list_add_tail>:
a080224c:	27bdffe8 	addiu	sp,sp,-24
a0802250:	afbf0014 	sw	ra,20(sp)
a0802254:	afbe0010 	sw	s8,16(sp)
a0802258:	03a0f021 	move	s8,sp
a080225c:	afc40018 	sw	a0,24(s8)
a0802260:	afc5001c 	sw	a1,28(s8)
a0802264:	8fc2001c 	lw	v0,28(s8)
a0802268:	8c420004 	lw	v0,4(v0)
a080226c:	8fc40018 	lw	a0,24(s8)
a0802270:	00402821 	move	a1,v0
a0802274:	8fc6001c 	lw	a2,28(s8)
a0802278:	0c2008a6 	jal	a0802298 <_list_add>
a080227c:	00000000 	nop
a0802280:	03c0e821 	move	sp,s8
a0802284:	8fbf0014 	lw	ra,20(sp)
a0802288:	8fbe0010 	lw	s8,16(sp)
a080228c:	27bd0018 	addiu	sp,sp,24
a0802290:	03e00008 	jr	ra
a0802294:	00000000 	nop

a0802298 <_list_add>:
a0802298:	27bdfff8 	addiu	sp,sp,-8
a080229c:	afbe0004 	sw	s8,4(sp)
a08022a0:	03a0f021 	move	s8,sp
a08022a4:	afc40008 	sw	a0,8(s8)
a08022a8:	afc5000c 	sw	a1,12(s8)
a08022ac:	afc60010 	sw	a2,16(s8)
a08022b0:	8fc30010 	lw	v1,16(s8)
a08022b4:	8fc20008 	lw	v0,8(s8)
a08022b8:	ac620004 	sw	v0,4(v1)
a08022bc:	8fc30008 	lw	v1,8(s8)
a08022c0:	8fc20010 	lw	v0,16(s8)
a08022c4:	ac620000 	sw	v0,0(v1)
a08022c8:	8fc30008 	lw	v1,8(s8)
a08022cc:	8fc2000c 	lw	v0,12(s8)
a08022d0:	ac620004 	sw	v0,4(v1)
a08022d4:	8fc3000c 	lw	v1,12(s8)
a08022d8:	8fc20008 	lw	v0,8(s8)
a08022dc:	ac620000 	sw	v0,0(v1)
a08022e0:	03c0e821 	move	sp,s8
a08022e4:	8fbe0004 	lw	s8,4(sp)
a08022e8:	27bd0008 	addiu	sp,sp,8
a08022ec:	03e00008 	jr	ra
a08022f0:	00000000 	nop

a08022f4 <futex_wait>:
a08022f4:	27bdffe0 	addiu	sp,sp,-32
a08022f8:	afbf001c 	sw	ra,28(sp)
a08022fc:	afbe0018 	sw	s8,24(sp)
a0802300:	03a0f021 	move	s8,sp
a0802304:	afc40020 	sw	a0,32(s8)
a0802308:	afc50024 	sw	a1,36(s8)
a080230c:	0c200106 	jal	a0800418 <disable_preempt>
a0802310:	00000000 	nop
a0802314:	8fc40020 	lw	a0,32(s8)
a0802318:	24050001 	li	a1,1
a080231c:	0c200842 	jal	a0802108 <get_node>
a0802320:	00000000 	nop
a0802324:	afc20010 	sw	v0,16(s8)
a0802328:	8fc20010 	lw	v0,16(s8)
a080232c:	14400008 	bnez	v0,a0802350 <futex_wait+0x5c>
a0802330:	00000000 	nop
a0802334:	3c02a080 	lui	v0,0xa080
a0802338:	24445d9c 	addiu	a0,v0,23964
a080233c:	24050042 	li	a1,66
a0802340:	3c02a080 	lui	v0,0xa080
a0802344:	24465d90 	addiu	a2,v0,23952
a0802348:	0c2008ea 	jal	a08023a8 <_panic>
a080234c:	00000000 	nop
a0802350:	8fc20020 	lw	v0,32(s8)
a0802354:	8c430000 	lw	v1,0(v0)
a0802358:	8fc20024 	lw	v0,36(s8)
a080235c:	1462000a 	bne	v1,v0,a0802388 <futex_wait+0x94>
a0802360:	00000000 	nop
a0802364:	3c02a080 	lui	v0,0xa080
a0802368:	8c426598 	lw	v0,26008(v0)
a080236c:	24430144 	addiu	v1,v0,324
a0802370:	8fc20010 	lw	v0,16(s8)
a0802374:	2442000c 	addiu	v0,v0,12
a0802378:	00602021 	move	a0,v1
a080237c:	00402821 	move	a1,v0
a0802380:	0c200a2b 	jal	a08028ac <do_block>
a0802384:	00000000 	nop
a0802388:	0c2000f2 	jal	a08003c8 <enable_preempt>
a080238c:	00000000 	nop
a0802390:	03c0e821 	move	sp,s8
a0802394:	8fbf001c 	lw	ra,28(sp)
a0802398:	8fbe0018 	lw	s8,24(sp)
a080239c:	27bd0020 	addiu	sp,sp,32
a08023a0:	03e00008 	jr	ra
a08023a4:	00000000 	nop

a08023a8 <_panic>:
a08023a8:	27bdffe8 	addiu	sp,sp,-24
a08023ac:	afbf0014 	sw	ra,20(sp)
a08023b0:	afbe0010 	sw	s8,16(sp)
a08023b4:	03a0f021 	move	s8,sp
a08023b8:	afc40018 	sw	a0,24(s8)
a08023bc:	afc5001c 	sw	a1,28(s8)
a08023c0:	afc60020 	sw	a2,32(s8)
a08023c4:	3c02a080 	lui	v0,0xa080
a08023c8:	24445db8 	addiu	a0,v0,23992
a08023cc:	8fc50020 	lw	a1,32(s8)
a08023d0:	8fc60018 	lw	a2,24(s8)
a08023d4:	8fc7001c 	lw	a3,28(s8)
a08023d8:	0c200f66 	jal	a0803d98 <printk>
a08023dc:	00000000 	nop
a08023e0:	082008f8 	j	a08023e0 <_panic+0x38>
a08023e4:	00000000 	nop

a08023e8 <futex_wakeup>:
a08023e8:	27bdffe0 	addiu	sp,sp,-32
a08023ec:	afbf001c 	sw	ra,28(sp)
a08023f0:	afbe0018 	sw	s8,24(sp)
a08023f4:	03a0f021 	move	s8,sp
a08023f8:	afc40020 	sw	a0,32(s8)
a08023fc:	afc50024 	sw	a1,36(s8)
a0802400:	0c200106 	jal	a0800418 <disable_preempt>
a0802404:	00000000 	nop
a0802408:	8fc40020 	lw	a0,32(s8)
a080240c:	00002821 	move	a1,zero
a0802410:	0c200842 	jal	a0802108 <get_node>
a0802414:	00000000 	nop
a0802418:	afc20014 	sw	v0,20(s8)
a080241c:	afc00010 	sw	zero,16(s8)
a0802420:	8fc20014 	lw	v0,20(s8)
a0802424:	10400018 	beqz	v0,a0802488 <futex_wakeup+0xa0>
a0802428:	00000000 	nop
a080242c:	afc00010 	sw	zero,16(s8)
a0802430:	0820091d 	j	a0802474 <futex_wakeup+0x8c>
a0802434:	00000000 	nop
a0802438:	8fc20014 	lw	v0,20(s8)
a080243c:	2442000c 	addiu	v0,v0,12
a0802440:	00402021 	move	a0,v0
a0802444:	0c20092c 	jal	a08024b0 <list_empty>
a0802448:	00000000 	nop
a080244c:	1440000e 	bnez	v0,a0802488 <futex_wakeup+0xa0>
a0802450:	00000000 	nop
a0802454:	8fc20014 	lw	v0,20(s8)
a0802458:	8c42000c 	lw	v0,12(v0)
a080245c:	00402021 	move	a0,v0
a0802460:	0c200a43 	jal	a080290c <do_unblock>
a0802464:	00000000 	nop
a0802468:	8fc20010 	lw	v0,16(s8)
a080246c:	24420001 	addiu	v0,v0,1
a0802470:	afc20010 	sw	v0,16(s8)
a0802474:	8fc20010 	lw	v0,16(s8)
a0802478:	8fc30024 	lw	v1,36(s8)
a080247c:	0043102a 	slt	v0,v0,v1
a0802480:	1440ffed 	bnez	v0,a0802438 <futex_wakeup+0x50>
a0802484:	00000000 	nop
a0802488:	0c200114 	jal	a0800450 <do_scheduler>
a080248c:	00000000 	nop
a0802490:	0c2000f2 	jal	a08003c8 <enable_preempt>
a0802494:	00000000 	nop
a0802498:	03c0e821 	move	sp,s8
a080249c:	8fbf001c 	lw	ra,28(sp)
a08024a0:	8fbe0018 	lw	s8,24(sp)
a08024a4:	27bd0020 	addiu	sp,sp,32
a08024a8:	03e00008 	jr	ra
a08024ac:	00000000 	nop

a08024b0 <list_empty>:
a08024b0:	27bdfff8 	addiu	sp,sp,-8
a08024b4:	afbe0004 	sw	s8,4(sp)
a08024b8:	03a0f021 	move	s8,sp
a08024bc:	afc40008 	sw	a0,8(s8)
a08024c0:	8fc20008 	lw	v0,8(s8)
a08024c4:	8c430000 	lw	v1,0(v0)
a08024c8:	8fc20008 	lw	v0,8(s8)
a08024cc:	00621026 	xor	v0,v1,v0
a08024d0:	2c420001 	sltiu	v0,v0,1
a08024d4:	03c0e821 	move	sp,s8
a08024d8:	8fbe0004 	lw	s8,4(sp)
a08024dc:	27bd0008 	addiu	sp,sp,8
a08024e0:	03e00008 	jr	ra
a08024e4:	00000000 	nop
	...

a08024f0 <scheduler>:
a08024f0:	27bdffd8 	addiu	sp,sp,-40
a08024f4:	afbf0024 	sw	ra,36(sp)
a08024f8:	afbe0020 	sw	s8,32(sp)
a08024fc:	03a0f021 	move	s8,sp
a0802500:	3c02a080 	lui	v0,0xa080
a0802504:	8c426598 	lw	v0,26008(v0)
a0802508:	8c42015c 	lw	v0,348(v0)
a080250c:	1440000a 	bnez	v0,a0802538 <scheduler+0x48>
a0802510:	00000000 	nop
a0802514:	3c02a080 	lui	v0,0xa080
a0802518:	8c426064 	lw	v0,24676(v0)
a080251c:	afc20018 	sw	v0,24(s8)
a0802520:	8fc20018 	lw	v0,24(s8)
a0802524:	2443febc 	addiu	v1,v0,-324
a0802528:	3c02a080 	lui	v0,0xa080
a080252c:	ac436598 	sw	v1,26008(v0)
a0802530:	0820097c 	j	a08025f0 <scheduler+0x100>
a0802534:	00000000 	nop
a0802538:	3c02a080 	lui	v0,0xa080
a080253c:	8c426598 	lw	v0,26008(v0)
a0802540:	8c420150 	lw	v0,336(v0)
a0802544:	14400025 	bnez	v0,a08025dc <scheduler+0xec>
a0802548:	00000000 	nop
a080254c:	3c02a080 	lui	v0,0xa080
a0802550:	8c436598 	lw	v1,26008(v0)
a0802554:	24020002 	li	v0,2
a0802558:	ac62015c 	sw	v0,348(v1)
a080255c:	3c02a080 	lui	v0,0xa080
a0802560:	8c436598 	lw	v1,26008(v0)
a0802564:	3c02a080 	lui	v0,0xa080
a0802568:	8c426598 	lw	v0,26008(v0)
a080256c:	8c42014c 	lw	v0,332(v0)
a0802570:	ac620150 	sw	v0,336(v1)
a0802574:	3c02a080 	lui	v0,0xa080
a0802578:	8c426598 	lw	v0,26008(v0)
a080257c:	8c430144 	lw	v1,324(v0)
a0802580:	3c02a080 	lui	v0,0xa080
a0802584:	24426064 	addiu	v0,v0,24676
a0802588:	1462000a 	bne	v1,v0,a08025b4 <scheduler+0xc4>
a080258c:	00000000 	nop
a0802590:	3c02a080 	lui	v0,0xa080
a0802594:	8c426064 	lw	v0,24676(v0)
a0802598:	afc20014 	sw	v0,20(s8)
a080259c:	8fc20014 	lw	v0,20(s8)
a08025a0:	2443febc 	addiu	v1,v0,-324
a08025a4:	3c02a080 	lui	v0,0xa080
a08025a8:	ac436598 	sw	v1,26008(v0)
a08025ac:	0820097c 	j	a08025f0 <scheduler+0x100>
a08025b0:	00000000 	nop
a08025b4:	3c02a080 	lui	v0,0xa080
a08025b8:	8c426598 	lw	v0,26008(v0)
a08025bc:	8c420144 	lw	v0,324(v0)
a08025c0:	afc20010 	sw	v0,16(s8)
a08025c4:	8fc20010 	lw	v0,16(s8)
a08025c8:	2443febc 	addiu	v1,v0,-324
a08025cc:	3c02a080 	lui	v0,0xa080
a08025d0:	ac436598 	sw	v1,26008(v0)
a08025d4:	0820097c 	j	a08025f0 <scheduler+0x100>
a08025d8:	00000000 	nop
a08025dc:	3c02a080 	lui	v0,0xa080
a08025e0:	8c436598 	lw	v1,26008(v0)
a08025e4:	8c620150 	lw	v0,336(v1)
a08025e8:	2442ffff 	addiu	v0,v0,-1
a08025ec:	ac620150 	sw	v0,336(v1)
a08025f0:	3c02a080 	lui	v0,0xa080
a08025f4:	8c436598 	lw	v1,26008(v0)
a08025f8:	24020001 	li	v0,1
a08025fc:	ac62015c 	sw	v0,348(v1)
a0802600:	3c02a080 	lui	v0,0xa080
a0802604:	8c426598 	lw	v0,26008(v0)
a0802608:	8c430160 	lw	v1,352(v0)
a080260c:	3c02a080 	lui	v0,0xa080
a0802610:	8c426598 	lw	v0,26008(v0)
a0802614:	8c420164 	lw	v0,356(v0)
a0802618:	00602021 	move	a0,v1
a080261c:	00402821 	move	a1,v0
a0802620:	0c200620 	jal	a0801880 <vt100_move_cursor>
a0802624:	00000000 	nop
a0802628:	3c02a080 	lui	v0,0xa080
a080262c:	8c426598 	lw	v0,26008(v0)
a0802630:	8c430160 	lw	v1,352(v0)
a0802634:	3c02a080 	lui	v0,0xa080
a0802638:	ac436590 	sw	v1,26000(v0)
a080263c:	3c02a080 	lui	v0,0xa080
a0802640:	8c426598 	lw	v0,26008(v0)
a0802644:	8c430164 	lw	v1,356(v0)
a0802648:	3c02a080 	lui	v0,0xa080
a080264c:	ac436594 	sw	v1,26004(v0)
a0802650:	03c0e821 	move	sp,s8
a0802654:	8fbf0024 	lw	ra,36(sp)
a0802658:	8fbe0020 	lw	s8,32(sp)
a080265c:	27bd0028 	addiu	sp,sp,40
a0802660:	03e00008 	jr	ra
a0802664:	00000000 	nop

a0802668 <do_sleep>:
a0802668:	27bdffd8 	addiu	sp,sp,-40
a080266c:	afbf0024 	sw	ra,36(sp)
a0802670:	afbe0020 	sw	s8,32(sp)
a0802674:	afb2001c 	sw	s2,28(sp)
a0802678:	afb10018 	sw	s1,24(sp)
a080267c:	afb00014 	sw	s0,20(sp)
a0802680:	03a0f021 	move	s8,sp
a0802684:	afc40028 	sw	a0,40(s8)
a0802688:	3c02a080 	lui	v0,0xa080
a080268c:	8c426598 	lw	v0,26008(v0)
a0802690:	ac40015c 	sw	zero,348(v0)
a0802694:	3c02a080 	lui	v0,0xa080
a0802698:	8c426598 	lw	v0,26008(v0)
a080269c:	24420144 	addiu	v0,v0,324
a08026a0:	00402021 	move	a0,v0
a08026a4:	0c2009d2 	jal	a0802748 <list_del>
a08026a8:	00000000 	nop
a08026ac:	3c02a080 	lui	v0,0xa080
a08026b0:	8c426598 	lw	v0,26008(v0)
a08026b4:	24420144 	addiu	v0,v0,324
a08026b8:	00402021 	move	a0,v0
a08026bc:	3c02a080 	lui	v0,0xa080
a08026c0:	2445606c 	addiu	a1,v0,24684
a08026c4:	0c200a01 	jal	a0802804 <list_add_tail>
a08026c8:	00000000 	nop
a08026cc:	3c02a080 	lui	v0,0xa080
a08026d0:	2452290c 	addiu	s2,v0,10508
a08026d4:	3c02a080 	lui	v0,0xa080
a08026d8:	8c426598 	lw	v0,26008(v0)
a08026dc:	24510144 	addiu	s1,v0,324
a08026e0:	0c200b8e 	jal	a0802e38 <get_ticks>
a08026e4:	00000000 	nop
a08026e8:	00408021 	move	s0,v0
a08026ec:	0c200bb1 	jal	a0802ec4 <get_time_base>
a08026f0:	00000000 	nop
a08026f4:	00401821 	move	v1,v0
a08026f8:	8fc20028 	lw	v0,40(s8)
a08026fc:	00620018 	mult	v1,v0
a0802700:	00001012 	mflo	v0
a0802704:	02021021 	addu	v0,s0,v0
a0802708:	02402021 	move	a0,s2
a080270c:	02202821 	move	a1,s1
a0802710:	00403021 	move	a2,v0
a0802714:	0c200aff 	jal	a0802bfc <timer_create>
a0802718:	00000000 	nop
a080271c:	0c200114 	jal	a0800450 <do_scheduler>
a0802720:	00000000 	nop
a0802724:	03c0e821 	move	sp,s8
a0802728:	8fbf0024 	lw	ra,36(sp)
a080272c:	8fbe0020 	lw	s8,32(sp)
a0802730:	8fb2001c 	lw	s2,28(sp)
a0802734:	8fb10018 	lw	s1,24(sp)
a0802738:	8fb00014 	lw	s0,20(sp)
a080273c:	27bd0028 	addiu	sp,sp,40
a0802740:	03e00008 	jr	ra
a0802744:	00000000 	nop

a0802748 <list_del>:
a0802748:	27bdffe8 	addiu	sp,sp,-24
a080274c:	afbf0014 	sw	ra,20(sp)
a0802750:	afbe0010 	sw	s8,16(sp)
a0802754:	03a0f021 	move	s8,sp
a0802758:	afc40018 	sw	a0,24(s8)
a080275c:	8fc20018 	lw	v0,24(s8)
a0802760:	8c420004 	lw	v0,4(v0)
a0802764:	10400011 	beqz	v0,a08027ac <list_del+0x64>
a0802768:	00000000 	nop
a080276c:	8fc20018 	lw	v0,24(s8)
a0802770:	8c420000 	lw	v0,0(v0)
a0802774:	1040000d 	beqz	v0,a08027ac <list_del+0x64>
a0802778:	00000000 	nop
a080277c:	8fc20018 	lw	v0,24(s8)
a0802780:	8c430004 	lw	v1,4(v0)
a0802784:	8fc20018 	lw	v0,24(s8)
a0802788:	8c420000 	lw	v0,0(v0)
a080278c:	00602021 	move	a0,v1
a0802790:	00402821 	move	a1,v0
a0802794:	0c2009f1 	jal	a08027c4 <_list_del>
a0802798:	00000000 	nop
a080279c:	8fc20018 	lw	v0,24(s8)
a08027a0:	ac400004 	sw	zero,4(v0)
a08027a4:	8fc20018 	lw	v0,24(s8)
a08027a8:	ac400000 	sw	zero,0(v0)
a08027ac:	03c0e821 	move	sp,s8
a08027b0:	8fbf0014 	lw	ra,20(sp)
a08027b4:	8fbe0010 	lw	s8,16(sp)
a08027b8:	27bd0018 	addiu	sp,sp,24
a08027bc:	03e00008 	jr	ra
a08027c0:	00000000 	nop

a08027c4 <_list_del>:
a08027c4:	27bdfff8 	addiu	sp,sp,-8
a08027c8:	afbe0004 	sw	s8,4(sp)
a08027cc:	03a0f021 	move	s8,sp
a08027d0:	afc40008 	sw	a0,8(s8)
a08027d4:	afc5000c 	sw	a1,12(s8)
a08027d8:	8fc3000c 	lw	v1,12(s8)
a08027dc:	8fc20008 	lw	v0,8(s8)
a08027e0:	ac620004 	sw	v0,4(v1)
a08027e4:	8fc30008 	lw	v1,8(s8)
a08027e8:	8fc2000c 	lw	v0,12(s8)
a08027ec:	ac620000 	sw	v0,0(v1)
a08027f0:	03c0e821 	move	sp,s8
a08027f4:	8fbe0004 	lw	s8,4(sp)
a08027f8:	27bd0008 	addiu	sp,sp,8
a08027fc:	03e00008 	jr	ra
a0802800:	00000000 	nop

a0802804 <list_add_tail>:
a0802804:	27bdffe8 	addiu	sp,sp,-24
a0802808:	afbf0014 	sw	ra,20(sp)
a080280c:	afbe0010 	sw	s8,16(sp)
a0802810:	03a0f021 	move	s8,sp
a0802814:	afc40018 	sw	a0,24(s8)
a0802818:	afc5001c 	sw	a1,28(s8)
a080281c:	8fc2001c 	lw	v0,28(s8)
a0802820:	8c420004 	lw	v0,4(v0)
a0802824:	8fc40018 	lw	a0,24(s8)
a0802828:	00402821 	move	a1,v0
a080282c:	8fc6001c 	lw	a2,28(s8)
a0802830:	0c200a14 	jal	a0802850 <_list_add>
a0802834:	00000000 	nop
a0802838:	03c0e821 	move	sp,s8
a080283c:	8fbf0014 	lw	ra,20(sp)
a0802840:	8fbe0010 	lw	s8,16(sp)
a0802844:	27bd0018 	addiu	sp,sp,24
a0802848:	03e00008 	jr	ra
a080284c:	00000000 	nop

a0802850 <_list_add>:
a0802850:	27bdfff8 	addiu	sp,sp,-8
a0802854:	afbe0004 	sw	s8,4(sp)
a0802858:	03a0f021 	move	s8,sp
a080285c:	afc40008 	sw	a0,8(s8)
a0802860:	afc5000c 	sw	a1,12(s8)
a0802864:	afc60010 	sw	a2,16(s8)
a0802868:	8fc30010 	lw	v1,16(s8)
a080286c:	8fc20008 	lw	v0,8(s8)
a0802870:	ac620004 	sw	v0,4(v1)
a0802874:	8fc30008 	lw	v1,8(s8)
a0802878:	8fc20010 	lw	v0,16(s8)
a080287c:	ac620000 	sw	v0,0(v1)
a0802880:	8fc30008 	lw	v1,8(s8)
a0802884:	8fc2000c 	lw	v0,12(s8)
a0802888:	ac620004 	sw	v0,4(v1)
a080288c:	8fc3000c 	lw	v1,12(s8)
a0802890:	8fc20008 	lw	v0,8(s8)
a0802894:	ac620000 	sw	v0,0(v1)
a0802898:	03c0e821 	move	sp,s8
a080289c:	8fbe0004 	lw	s8,4(sp)
a08028a0:	27bd0008 	addiu	sp,sp,8
a08028a4:	03e00008 	jr	ra
a08028a8:	00000000 	nop

a08028ac <do_block>:
a08028ac:	27bdffe8 	addiu	sp,sp,-24
a08028b0:	afbf0014 	sw	ra,20(sp)
a08028b4:	afbe0010 	sw	s8,16(sp)
a08028b8:	03a0f021 	move	s8,sp
a08028bc:	afc40018 	sw	a0,24(s8)
a08028c0:	afc5001c 	sw	a1,28(s8)
a08028c4:	3c02a080 	lui	v0,0xa080
a08028c8:	8c426598 	lw	v0,26008(v0)
a08028cc:	ac40015c 	sw	zero,348(v0)
a08028d0:	8fc40018 	lw	a0,24(s8)
a08028d4:	0c2009d2 	jal	a0802748 <list_del>
a08028d8:	00000000 	nop
a08028dc:	8fc40018 	lw	a0,24(s8)
a08028e0:	8fc5001c 	lw	a1,28(s8)
a08028e4:	0c200a01 	jal	a0802804 <list_add_tail>
a08028e8:	00000000 	nop
a08028ec:	0c200114 	jal	a0800450 <do_scheduler>
a08028f0:	00000000 	nop
a08028f4:	03c0e821 	move	sp,s8
a08028f8:	8fbf0014 	lw	ra,20(sp)
a08028fc:	8fbe0010 	lw	s8,16(sp)
a0802900:	27bd0018 	addiu	sp,sp,24
a0802904:	03e00008 	jr	ra
a0802908:	00000000 	nop

a080290c <do_unblock>:
a080290c:	27bdffe0 	addiu	sp,sp,-32
a0802910:	afbf001c 	sw	ra,28(sp)
a0802914:	afbe0018 	sw	s8,24(sp)
a0802918:	03a0f021 	move	s8,sp
a080291c:	afc40020 	sw	a0,32(s8)
a0802920:	8fc20020 	lw	v0,32(s8)
a0802924:	afc20010 	sw	v0,16(s8)
a0802928:	8fc20010 	lw	v0,16(s8)
a080292c:	2443febc 	addiu	v1,v0,-324
a0802930:	24020002 	li	v0,2
a0802934:	ac62015c 	sw	v0,348(v1)
a0802938:	8fc40020 	lw	a0,32(s8)
a080293c:	0c2009d2 	jal	a0802748 <list_del>
a0802940:	00000000 	nop
a0802944:	8fc40020 	lw	a0,32(s8)
a0802948:	3c02a080 	lui	v0,0xa080
a080294c:	24456064 	addiu	a1,v0,24676
a0802950:	0c200a01 	jal	a0802804 <list_add_tail>
a0802954:	00000000 	nop
a0802958:	03c0e821 	move	sp,s8
a080295c:	8fbf001c 	lw	ra,28(sp)
a0802960:	8fbe0018 	lw	s8,24(sp)
a0802964:	27bd0020 	addiu	sp,sp,32
a0802968:	03e00008 	jr	ra
a080296c:	00000000 	nop

a0802970 <alloc_timer>:
a0802970:	27bdffe0 	addiu	sp,sp,-32
a0802974:	afbf001c 	sw	ra,28(sp)
a0802978:	afbe0018 	sw	s8,24(sp)
a080297c:	03a0f021 	move	s8,sp
a0802980:	afc00014 	sw	zero,20(s8)
a0802984:	3c02a080 	lui	v0,0xa080
a0802988:	244461f0 	addiu	a0,v0,25072
a080298c:	0c200a87 	jal	a0802a1c <list_empty>
a0802990:	00000000 	nop
a0802994:	1440000c 	bnez	v0,a08029c8 <alloc_timer+0x58>
a0802998:	00000000 	nop
a080299c:	3c02a080 	lui	v0,0xa080
a08029a0:	8c4261f0 	lw	v0,25072(v0)
a08029a4:	afc20010 	sw	v0,16(s8)
a08029a8:	8fc20010 	lw	v0,16(s8)
a08029ac:	afc20014 	sw	v0,20(s8)
a08029b0:	8fc20014 	lw	v0,20(s8)
a08029b4:	00402021 	move	a0,v0
a08029b8:	0c200a95 	jal	a0802a54 <list_del>
a08029bc:	00000000 	nop
a08029c0:	08200a76 	j	a08029d8 <alloc_timer+0x68>
a08029c4:	00000000 	nop
a08029c8:	24040014 	li	a0,20
a08029cc:	0c200be9 	jal	a0802fa4 <kmalloc>
a08029d0:	00000000 	nop
a08029d4:	afc20014 	sw	v0,20(s8)
a08029d8:	8fc20014 	lw	v0,20(s8)
a08029dc:	ac400000 	sw	zero,0(v0)
a08029e0:	8fc20014 	lw	v0,20(s8)
a08029e4:	ac400004 	sw	zero,4(v0)
a08029e8:	8fc20014 	lw	v0,20(s8)
a08029ec:	ac400008 	sw	zero,8(v0)
a08029f0:	8fc20014 	lw	v0,20(s8)
a08029f4:	ac40000c 	sw	zero,12(v0)
a08029f8:	8fc20014 	lw	v0,20(s8)
a08029fc:	ac400010 	sw	zero,16(v0)
a0802a00:	8fc20014 	lw	v0,20(s8)
a0802a04:	03c0e821 	move	sp,s8
a0802a08:	8fbf001c 	lw	ra,28(sp)
a0802a0c:	8fbe0018 	lw	s8,24(sp)
a0802a10:	27bd0020 	addiu	sp,sp,32
a0802a14:	03e00008 	jr	ra
a0802a18:	00000000 	nop

a0802a1c <list_empty>:
a0802a1c:	27bdfff8 	addiu	sp,sp,-8
a0802a20:	afbe0004 	sw	s8,4(sp)
a0802a24:	03a0f021 	move	s8,sp
a0802a28:	afc40008 	sw	a0,8(s8)
a0802a2c:	8fc20008 	lw	v0,8(s8)
a0802a30:	8c430000 	lw	v1,0(v0)
a0802a34:	8fc20008 	lw	v0,8(s8)
a0802a38:	00621026 	xor	v0,v1,v0
a0802a3c:	2c420001 	sltiu	v0,v0,1
a0802a40:	03c0e821 	move	sp,s8
a0802a44:	8fbe0004 	lw	s8,4(sp)
a0802a48:	27bd0008 	addiu	sp,sp,8
a0802a4c:	03e00008 	jr	ra
a0802a50:	00000000 	nop

a0802a54 <list_del>:
a0802a54:	27bdffe8 	addiu	sp,sp,-24
a0802a58:	afbf0014 	sw	ra,20(sp)
a0802a5c:	afbe0010 	sw	s8,16(sp)
a0802a60:	03a0f021 	move	s8,sp
a0802a64:	afc40018 	sw	a0,24(s8)
a0802a68:	8fc20018 	lw	v0,24(s8)
a0802a6c:	8c420004 	lw	v0,4(v0)
a0802a70:	10400011 	beqz	v0,a0802ab8 <list_del+0x64>
a0802a74:	00000000 	nop
a0802a78:	8fc20018 	lw	v0,24(s8)
a0802a7c:	8c420000 	lw	v0,0(v0)
a0802a80:	1040000d 	beqz	v0,a0802ab8 <list_del+0x64>
a0802a84:	00000000 	nop
a0802a88:	8fc20018 	lw	v0,24(s8)
a0802a8c:	8c430004 	lw	v1,4(v0)
a0802a90:	8fc20018 	lw	v0,24(s8)
a0802a94:	8c420000 	lw	v0,0(v0)
a0802a98:	00602021 	move	a0,v1
a0802a9c:	00402821 	move	a1,v0
a0802aa0:	0c200ab4 	jal	a0802ad0 <_list_del>
a0802aa4:	00000000 	nop
a0802aa8:	8fc20018 	lw	v0,24(s8)
a0802aac:	ac400004 	sw	zero,4(v0)
a0802ab0:	8fc20018 	lw	v0,24(s8)
a0802ab4:	ac400000 	sw	zero,0(v0)
a0802ab8:	03c0e821 	move	sp,s8
a0802abc:	8fbf0014 	lw	ra,20(sp)
a0802ac0:	8fbe0010 	lw	s8,16(sp)
a0802ac4:	27bd0018 	addiu	sp,sp,24
a0802ac8:	03e00008 	jr	ra
a0802acc:	00000000 	nop

a0802ad0 <_list_del>:
a0802ad0:	27bdfff8 	addiu	sp,sp,-8
a0802ad4:	afbe0004 	sw	s8,4(sp)
a0802ad8:	03a0f021 	move	s8,sp
a0802adc:	afc40008 	sw	a0,8(s8)
a0802ae0:	afc5000c 	sw	a1,12(s8)
a0802ae4:	8fc3000c 	lw	v1,12(s8)
a0802ae8:	8fc20008 	lw	v0,8(s8)
a0802aec:	ac620004 	sw	v0,4(v1)
a0802af0:	8fc30008 	lw	v1,8(s8)
a0802af4:	8fc2000c 	lw	v0,12(s8)
a0802af8:	ac620000 	sw	v0,0(v1)
a0802afc:	03c0e821 	move	sp,s8
a0802b00:	8fbe0004 	lw	s8,4(sp)
a0802b04:	27bd0008 	addiu	sp,sp,8
a0802b08:	03e00008 	jr	ra
a0802b0c:	00000000 	nop

a0802b10 <free_timer>:
a0802b10:	27bdffe8 	addiu	sp,sp,-24
a0802b14:	afbf0014 	sw	ra,20(sp)
a0802b18:	afbe0010 	sw	s8,16(sp)
a0802b1c:	03a0f021 	move	s8,sp
a0802b20:	afc40018 	sw	a0,24(s8)
a0802b24:	8fc20018 	lw	v0,24(s8)
a0802b28:	00402021 	move	a0,v0
a0802b2c:	3c02a080 	lui	v0,0xa080
a0802b30:	244561f0 	addiu	a1,v0,25072
a0802b34:	0c200ad5 	jal	a0802b54 <list_add_tail>
a0802b38:	00000000 	nop
a0802b3c:	03c0e821 	move	sp,s8
a0802b40:	8fbf0014 	lw	ra,20(sp)
a0802b44:	8fbe0010 	lw	s8,16(sp)
a0802b48:	27bd0018 	addiu	sp,sp,24
a0802b4c:	03e00008 	jr	ra
a0802b50:	00000000 	nop

a0802b54 <list_add_tail>:
a0802b54:	27bdffe8 	addiu	sp,sp,-24
a0802b58:	afbf0014 	sw	ra,20(sp)
a0802b5c:	afbe0010 	sw	s8,16(sp)
a0802b60:	03a0f021 	move	s8,sp
a0802b64:	afc40018 	sw	a0,24(s8)
a0802b68:	afc5001c 	sw	a1,28(s8)
a0802b6c:	8fc2001c 	lw	v0,28(s8)
a0802b70:	8c420004 	lw	v0,4(v0)
a0802b74:	8fc40018 	lw	a0,24(s8)
a0802b78:	00402821 	move	a1,v0
a0802b7c:	8fc6001c 	lw	a2,28(s8)
a0802b80:	0c200ae8 	jal	a0802ba0 <_list_add>
a0802b84:	00000000 	nop
a0802b88:	03c0e821 	move	sp,s8
a0802b8c:	8fbf0014 	lw	ra,20(sp)
a0802b90:	8fbe0010 	lw	s8,16(sp)
a0802b94:	27bd0018 	addiu	sp,sp,24
a0802b98:	03e00008 	jr	ra
a0802b9c:	00000000 	nop

a0802ba0 <_list_add>:
a0802ba0:	27bdfff8 	addiu	sp,sp,-8
a0802ba4:	afbe0004 	sw	s8,4(sp)
a0802ba8:	03a0f021 	move	s8,sp
a0802bac:	afc40008 	sw	a0,8(s8)
a0802bb0:	afc5000c 	sw	a1,12(s8)
a0802bb4:	afc60010 	sw	a2,16(s8)
a0802bb8:	8fc30010 	lw	v1,16(s8)
a0802bbc:	8fc20008 	lw	v0,8(s8)
a0802bc0:	ac620004 	sw	v0,4(v1)
a0802bc4:	8fc30008 	lw	v1,8(s8)
a0802bc8:	8fc20010 	lw	v0,16(s8)
a0802bcc:	ac620000 	sw	v0,0(v1)
a0802bd0:	8fc30008 	lw	v1,8(s8)
a0802bd4:	8fc2000c 	lw	v0,12(s8)
a0802bd8:	ac620004 	sw	v0,4(v1)
a0802bdc:	8fc3000c 	lw	v1,12(s8)
a0802be0:	8fc20008 	lw	v0,8(s8)
a0802be4:	ac620000 	sw	v0,0(v1)
a0802be8:	03c0e821 	move	sp,s8
a0802bec:	8fbe0004 	lw	s8,4(sp)
a0802bf0:	27bd0008 	addiu	sp,sp,8
a0802bf4:	03e00008 	jr	ra
a0802bf8:	00000000 	nop

a0802bfc <timer_create>:
a0802bfc:	27bdffd8 	addiu	sp,sp,-40
a0802c00:	afbf0024 	sw	ra,36(sp)
a0802c04:	afbe0020 	sw	s8,32(sp)
a0802c08:	03a0f021 	move	s8,sp
a0802c0c:	afc40028 	sw	a0,40(s8)
a0802c10:	afc5002c 	sw	a1,44(s8)
a0802c14:	afc60030 	sw	a2,48(s8)
a0802c18:	0c200106 	jal	a0800418 <disable_preempt>
a0802c1c:	00000000 	nop
a0802c20:	0c200a5c 	jal	a0802970 <alloc_timer>
a0802c24:	00000000 	nop
a0802c28:	afc2001c 	sw	v0,28(s8)
a0802c2c:	8fc3001c 	lw	v1,28(s8)
a0802c30:	8fc20028 	lw	v0,40(s8)
a0802c34:	ac62000c 	sw	v0,12(v1)
a0802c38:	8fc3001c 	lw	v1,28(s8)
a0802c3c:	8fc2002c 	lw	v0,44(s8)
a0802c40:	ac620010 	sw	v0,16(v1)
a0802c44:	8fc3001c 	lw	v1,28(s8)
a0802c48:	8fc20030 	lw	v0,48(s8)
a0802c4c:	ac620008 	sw	v0,8(v1)
a0802c50:	3c02a080 	lui	v0,0xa080
a0802c54:	244261e0 	addiu	v0,v0,25056
a0802c58:	afc20018 	sw	v0,24(s8)
a0802c5c:	afc00014 	sw	zero,20(s8)
a0802c60:	8fc40018 	lw	a0,24(s8)
a0802c64:	0c200a87 	jal	a0802a1c <list_empty>
a0802c68:	00000000 	nop
a0802c6c:	1040001f 	beqz	v0,a0802cec <timer_create+0xf0>
a0802c70:	00000000 	nop
a0802c74:	8fc2001c 	lw	v0,28(s8)
a0802c78:	00402021 	move	a0,v0
a0802c7c:	8fc50018 	lw	a1,24(s8)
a0802c80:	0c200ad5 	jal	a0802b54 <list_add_tail>
a0802c84:	00000000 	nop
a0802c88:	08200b4d 	j	a0802d34 <timer_create+0x138>
a0802c8c:	00000000 	nop
a0802c90:	8fc20018 	lw	v0,24(s8)
a0802c94:	8c420000 	lw	v0,0(v0)
a0802c98:	afc20010 	sw	v0,16(s8)
a0802c9c:	8fc20010 	lw	v0,16(s8)
a0802ca0:	afc20014 	sw	v0,20(s8)
a0802ca4:	8fc20014 	lw	v0,20(s8)
a0802ca8:	8c430008 	lw	v1,8(v0)
a0802cac:	8fc2001c 	lw	v0,28(s8)
a0802cb0:	8c420008 	lw	v0,8(v0)
a0802cb4:	0043102b 	sltu	v0,v0,v1
a0802cb8:	10400009 	beqz	v0,a0802ce0 <timer_create+0xe4>
a0802cbc:	00000000 	nop
a0802cc0:	8fc2001c 	lw	v0,28(s8)
a0802cc4:	8fc30014 	lw	v1,20(s8)
a0802cc8:	00402021 	move	a0,v0
a0802ccc:	00602821 	move	a1,v1
a0802cd0:	0c200ad5 	jal	a0802b54 <list_add_tail>
a0802cd4:	00000000 	nop
a0802cd8:	08200b4d 	j	a0802d34 <timer_create+0x138>
a0802cdc:	00000000 	nop
a0802ce0:	8fc20018 	lw	v0,24(s8)
a0802ce4:	8c420000 	lw	v0,0(v0)
a0802ce8:	afc20018 	sw	v0,24(s8)
a0802cec:	8fc20018 	lw	v0,24(s8)
a0802cf0:	8c430000 	lw	v1,0(v0)
a0802cf4:	3c02a080 	lui	v0,0xa080
a0802cf8:	244261e0 	addiu	v0,v0,25056
a0802cfc:	1462ffe4 	bne	v1,v0,a0802c90 <timer_create+0x94>
a0802d00:	00000000 	nop
a0802d04:	8fc20018 	lw	v0,24(s8)
a0802d08:	8c430000 	lw	v1,0(v0)
a0802d0c:	3c02a080 	lui	v0,0xa080
a0802d10:	244261e0 	addiu	v0,v0,25056
a0802d14:	14620007 	bne	v1,v0,a0802d34 <timer_create+0x138>
a0802d18:	00000000 	nop
a0802d1c:	8fc2001c 	lw	v0,28(s8)
a0802d20:	00402021 	move	a0,v0
a0802d24:	3c02a080 	lui	v0,0xa080
a0802d28:	244561e0 	addiu	a1,v0,25056
a0802d2c:	0c200ad5 	jal	a0802b54 <list_add_tail>
a0802d30:	00000000 	nop
a0802d34:	0c2000f2 	jal	a08003c8 <enable_preempt>
a0802d38:	00000000 	nop
a0802d3c:	03c0e821 	move	sp,s8
a0802d40:	8fbf0024 	lw	ra,36(sp)
a0802d44:	8fbe0020 	lw	s8,32(sp)
a0802d48:	27bd0028 	addiu	sp,sp,40
a0802d4c:	03e00008 	jr	ra
a0802d50:	00000000 	nop

a0802d54 <timer_check>:
a0802d54:	27bdffd8 	addiu	sp,sp,-40
a0802d58:	afbf0024 	sw	ra,36(sp)
a0802d5c:	afbe0020 	sw	s8,32(sp)
a0802d60:	03a0f021 	move	s8,sp
a0802d64:	0c200106 	jal	a0800418 <disable_preempt>
a0802d68:	00000000 	nop
a0802d6c:	3c02a080 	lui	v0,0xa080
a0802d70:	244461e0 	addiu	a0,v0,25056
a0802d74:	0c200a87 	jal	a0802a1c <list_empty>
a0802d78:	00000000 	nop
a0802d7c:	14400026 	bnez	v0,a0802e18 <timer_check+0xc4>
a0802d80:	00000000 	nop
a0802d84:	0c200b8e 	jal	a0802e38 <get_ticks>
a0802d88:	00000000 	nop
a0802d8c:	afc20018 	sw	v0,24(s8)
a0802d90:	afc00014 	sw	zero,20(s8)
a0802d94:	08200b80 	j	a0802e00 <timer_check+0xac>
a0802d98:	00000000 	nop
a0802d9c:	3c02a080 	lui	v0,0xa080
a0802da0:	8c4261e0 	lw	v0,25056(v0)
a0802da4:	afc20010 	sw	v0,16(s8)
a0802da8:	8fc20010 	lw	v0,16(s8)
a0802dac:	afc20014 	sw	v0,20(s8)
a0802db0:	8fc20014 	lw	v0,20(s8)
a0802db4:	8c430008 	lw	v1,8(v0)
a0802db8:	8fc20018 	lw	v0,24(s8)
a0802dbc:	0043102b 	sltu	v0,v0,v1
a0802dc0:	14400015 	bnez	v0,a0802e18 <timer_check+0xc4>
a0802dc4:	00000000 	nop
a0802dc8:	8fc20014 	lw	v0,20(s8)
a0802dcc:	8c43000c 	lw	v1,12(v0)
a0802dd0:	8fc20014 	lw	v0,20(s8)
a0802dd4:	8c420010 	lw	v0,16(v0)
a0802dd8:	00402021 	move	a0,v0
a0802ddc:	0060f809 	jalr	v1
a0802de0:	00000000 	nop
a0802de4:	8fc20014 	lw	v0,20(s8)
a0802de8:	00402021 	move	a0,v0
a0802dec:	0c200a95 	jal	a0802a54 <list_del>
a0802df0:	00000000 	nop
a0802df4:	8fc40014 	lw	a0,20(s8)
a0802df8:	0c200ac4 	jal	a0802b10 <free_timer>
a0802dfc:	00000000 	nop
a0802e00:	3c02a080 	lui	v0,0xa080
a0802e04:	244461e0 	addiu	a0,v0,25056
a0802e08:	0c200a87 	jal	a0802a1c <list_empty>
a0802e0c:	00000000 	nop
a0802e10:	1040ffe2 	beqz	v0,a0802d9c <timer_check+0x48>
a0802e14:	00000000 	nop
a0802e18:	0c2000f2 	jal	a08003c8 <enable_preempt>
a0802e1c:	00000000 	nop
a0802e20:	03c0e821 	move	sp,s8
a0802e24:	8fbf0024 	lw	ra,36(sp)
a0802e28:	8fbe0020 	lw	s8,32(sp)
a0802e2c:	27bd0028 	addiu	sp,sp,40
a0802e30:	03e00008 	jr	ra
a0802e34:	00000000 	nop

a0802e38 <get_ticks>:
a0802e38:	27bdffe8 	addiu	sp,sp,-24
a0802e3c:	afbf0014 	sw	ra,20(sp)
a0802e40:	afbe0010 	sw	s8,16(sp)
a0802e44:	03a0f021 	move	s8,sp
a0802e48:	0c2000ef 	jal	a08003bc <get_count>
a0802e4c:	00000000 	nop
a0802e50:	00401821 	move	v1,v0
a0802e54:	3c02a081 	lui	v0,0xa081
a0802e58:	ac4384e0 	sw	v1,-31520(v0)
a0802e5c:	3c02a081 	lui	v0,0xa081
a0802e60:	8c4284e0 	lw	v0,-31520(v0)
a0802e64:	03c0e821 	move	sp,s8
a0802e68:	8fbf0014 	lw	ra,20(sp)
a0802e6c:	8fbe0010 	lw	s8,16(sp)
a0802e70:	27bd0018 	addiu	sp,sp,24
a0802e74:	03e00008 	jr	ra
a0802e78:	00000000 	nop

a0802e7c <get_timer>:
a0802e7c:	27bdffe0 	addiu	sp,sp,-32
a0802e80:	afbf001c 	sw	ra,28(sp)
a0802e84:	afbe0018 	sw	s8,24(sp)
a0802e88:	03a0f021 	move	s8,sp
a0802e8c:	0c200b8e 	jal	a0802e38 <get_ticks>
a0802e90:	00000000 	nop
a0802e94:	00401821 	move	v1,v0
a0802e98:	3c02a080 	lui	v0,0xa080
a0802e9c:	8c4261e8 	lw	v0,25064(v0)
a0802ea0:	0062001b 	divu	zero,v1,v0
a0802ea4:	004001f4 	teq	v0,zero,0x7
a0802ea8:	00001012 	mflo	v0
a0802eac:	03c0e821 	move	sp,s8
a0802eb0:	8fbf001c 	lw	ra,28(sp)
a0802eb4:	8fbe0018 	lw	s8,24(sp)
a0802eb8:	27bd0020 	addiu	sp,sp,32
a0802ebc:	03e00008 	jr	ra
a0802ec0:	00000000 	nop

a0802ec4 <get_time_base>:
a0802ec4:	27bdfff8 	addiu	sp,sp,-8
a0802ec8:	afbe0004 	sw	s8,4(sp)
a0802ecc:	03a0f021 	move	s8,sp
a0802ed0:	3c02a080 	lui	v0,0xa080
a0802ed4:	8c4261e8 	lw	v0,25064(v0)
a0802ed8:	03c0e821 	move	sp,s8
a0802edc:	8fbe0004 	lw	s8,4(sp)
a0802ee0:	27bd0008 	addiu	sp,sp,8
a0802ee4:	03e00008 	jr	ra
a0802ee8:	00000000 	nop

a0802eec <latency>:
a0802eec:	27bdffe0 	addiu	sp,sp,-32
a0802ef0:	afbf001c 	sw	ra,28(sp)
a0802ef4:	afbe0018 	sw	s8,24(sp)
a0802ef8:	03a0f021 	move	s8,sp
a0802efc:	afc40020 	sw	a0,32(s8)
a0802f00:	0c200b9f 	jal	a0802e7c <get_timer>
a0802f04:	00000000 	nop
a0802f08:	afc20010 	sw	v0,16(s8)
a0802f0c:	0c200b9f 	jal	a0802e7c <get_timer>
a0802f10:	00000000 	nop
a0802f14:	00401821 	move	v1,v0
a0802f18:	8fc20010 	lw	v0,16(s8)
a0802f1c:	00621823 	subu	v1,v1,v0
a0802f20:	8fc20020 	lw	v0,32(s8)
a0802f24:	0062102b 	sltu	v0,v1,v0
a0802f28:	1440fff8 	bnez	v0,a0802f0c <latency+0x20>
a0802f2c:	00000000 	nop
a0802f30:	03c0e821 	move	sp,s8
a0802f34:	8fbf001c 	lw	ra,28(sp)
a0802f38:	8fbe0018 	lw	s8,24(sp)
a0802f3c:	27bd0020 	addiu	sp,sp,32
a0802f40:	03e00008 	jr	ra
a0802f44:	00000000 	nop
	...

a0802f50 <allocPage>:
a0802f50:	27bdfff8 	addiu	sp,sp,-8
a0802f54:	afbe0004 	sw	s8,4(sp)
a0802f58:	03a0f021 	move	s8,sp
a0802f5c:	afc40008 	sw	a0,8(s8)
a0802f60:	3c02a080 	lui	v0,0xa080
a0802f64:	8c426200 	lw	v0,25088(v0)
a0802f68:	24430fff 	addiu	v1,v0,4095
a0802f6c:	2402f000 	li	v0,-4096
a0802f70:	00621824 	and	v1,v1,v0
a0802f74:	8fc20008 	lw	v0,8(s8)
a0802f78:	00021300 	sll	v0,v0,0xc
a0802f7c:	00621821 	addu	v1,v1,v0
a0802f80:	3c02a080 	lui	v0,0xa080
a0802f84:	ac436200 	sw	v1,25088(v0)
a0802f88:	3c02a080 	lui	v0,0xa080
a0802f8c:	8c426200 	lw	v0,25088(v0)
a0802f90:	03c0e821 	move	sp,s8
a0802f94:	8fbe0004 	lw	s8,4(sp)
a0802f98:	27bd0008 	addiu	sp,sp,8
a0802f9c:	03e00008 	jr	ra
a0802fa0:	00000000 	nop

a0802fa4 <kmalloc>:
a0802fa4:	27bdfff0 	addiu	sp,sp,-16
a0802fa8:	afbe000c 	sw	s8,12(sp)
a0802fac:	03a0f021 	move	s8,sp
a0802fb0:	afc40010 	sw	a0,16(s8)
a0802fb4:	3c02a080 	lui	v0,0xa080
a0802fb8:	8c426200 	lw	v0,25088(v0)
a0802fbc:	24430003 	addiu	v1,v0,3
a0802fc0:	2402fffc 	li	v0,-4
a0802fc4:	00621024 	and	v0,v1,v0
a0802fc8:	afc20000 	sw	v0,0(s8)
a0802fcc:	8fc30000 	lw	v1,0(s8)
a0802fd0:	8fc20010 	lw	v0,16(s8)
a0802fd4:	00621821 	addu	v1,v1,v0
a0802fd8:	3c02a080 	lui	v0,0xa080
a0802fdc:	ac436200 	sw	v1,25088(v0)
a0802fe0:	8fc20000 	lw	v0,0(s8)
a0802fe4:	03c0e821 	move	sp,s8
a0802fe8:	8fbe000c 	lw	s8,12(sp)
a0802fec:	27bd0010 	addiu	sp,sp,16
a0802ff0:	03e00008 	jr	ra
a0802ff4:	00000000 	nop
	...

a0803000 <system_call_helper>:
a0803000:	27bdffe8 	addiu	sp,sp,-24
a0803004:	afbf0014 	sw	ra,20(sp)
a0803008:	afbe0010 	sw	s8,16(sp)
a080300c:	03a0f021 	move	s8,sp
a0803010:	afc40018 	sw	a0,24(s8)
a0803014:	8fc20018 	lw	v0,24(s8)
a0803018:	8c420094 	lw	v0,148(v0)
a080301c:	24430004 	addiu	v1,v0,4
a0803020:	8fc20018 	lw	v0,24(s8)
a0803024:	ac430094 	sw	v1,148(v0)
a0803028:	8fc20018 	lw	v0,24(s8)
a080302c:	8c420008 	lw	v0,8(v0)
a0803030:	3c03a081 	lui	v1,0xa081
a0803034:	00022080 	sll	a0,v0,0x2
a0803038:	24629f90 	addiu	v0,v1,-24688
a080303c:	00821021 	addu	v0,a0,v0
a0803040:	8c470000 	lw	a3,0(v0)
a0803044:	8fc20018 	lw	v0,24(s8)
a0803048:	8c430010 	lw	v1,16(v0)
a080304c:	8fc20018 	lw	v0,24(s8)
a0803050:	8c450014 	lw	a1,20(v0)
a0803054:	8fc20018 	lw	v0,24(s8)
a0803058:	8c420018 	lw	v0,24(v0)
a080305c:	00602021 	move	a0,v1
a0803060:	00403021 	move	a2,v0
a0803064:	00e0f809 	jalr	a3
a0803068:	00000000 	nop
a080306c:	00401821 	move	v1,v0
a0803070:	8fc20018 	lw	v0,24(s8)
a0803074:	ac430008 	sw	v1,8(v0)
a0803078:	03c0e821 	move	sp,s8
a080307c:	8fbf0014 	lw	ra,20(sp)
a0803080:	8fbe0010 	lw	s8,16(sp)
a0803084:	27bd0018 	addiu	sp,sp,24
a0803088:	03e00008 	jr	ra
a080308c:	00000000 	nop

a0803090 <kstrlen>:
a0803090:	27bdfff0 	addiu	sp,sp,-16
a0803094:	afbe000c 	sw	s8,12(sp)
a0803098:	03a0f021 	move	s8,sp
a080309c:	afc40010 	sw	a0,16(s8)
a08030a0:	afc00000 	sw	zero,0(s8)
a08030a4:	08200c2e 	j	a08030b8 <kstrlen+0x28>
a08030a8:	00000000 	nop
a08030ac:	8fc20000 	lw	v0,0(s8)
a08030b0:	24420001 	addiu	v0,v0,1
a08030b4:	afc20000 	sw	v0,0(s8)
a08030b8:	8fc30000 	lw	v1,0(s8)
a08030bc:	8fc20010 	lw	v0,16(s8)
a08030c0:	00431021 	addu	v0,v0,v1
a08030c4:	80420000 	lb	v0,0(v0)
a08030c8:	1440fff8 	bnez	v0,a08030ac <kstrlen+0x1c>
a08030cc:	00000000 	nop
a08030d0:	8fc20000 	lw	v0,0(s8)
a08030d4:	03c0e821 	move	sp,s8
a08030d8:	8fbe000c 	lw	s8,12(sp)
a08030dc:	27bd0010 	addiu	sp,sp,16
a08030e0:	03e00008 	jr	ra
a08030e4:	00000000 	nop

a08030e8 <kmemcpy>:
a08030e8:	27bdfff8 	addiu	sp,sp,-8
a08030ec:	afbe0004 	sw	s8,4(sp)
a08030f0:	03a0f021 	move	s8,sp
a08030f4:	afc40008 	sw	a0,8(s8)
a08030f8:	afc5000c 	sw	a1,12(s8)
a08030fc:	afc60010 	sw	a2,16(s8)
a0803100:	08200c4f 	j	a080313c <kmemcpy+0x54>
a0803104:	00000000 	nop
a0803108:	8fc2000c 	lw	v0,12(s8)
a080310c:	90430000 	lbu	v1,0(v0)
a0803110:	8fc20008 	lw	v0,8(s8)
a0803114:	a0430000 	sb	v1,0(v0)
a0803118:	8fc20008 	lw	v0,8(s8)
a080311c:	24420001 	addiu	v0,v0,1
a0803120:	afc20008 	sw	v0,8(s8)
a0803124:	8fc2000c 	lw	v0,12(s8)
a0803128:	24420001 	addiu	v0,v0,1
a080312c:	afc2000c 	sw	v0,12(s8)
a0803130:	8fc20010 	lw	v0,16(s8)
a0803134:	2442ffff 	addiu	v0,v0,-1
a0803138:	afc20010 	sw	v0,16(s8)
a080313c:	8fc20010 	lw	v0,16(s8)
a0803140:	1440fff1 	bnez	v0,a0803108 <kmemcpy+0x20>
a0803144:	00000000 	nop
a0803148:	03c0e821 	move	sp,s8
a080314c:	8fbe0004 	lw	s8,4(sp)
a0803150:	27bd0008 	addiu	sp,sp,8
a0803154:	03e00008 	jr	ra
a0803158:	00000000 	nop

a080315c <kmemset>:
a080315c:	27bdfff0 	addiu	sp,sp,-16
a0803160:	afbe000c 	sw	s8,12(sp)
a0803164:	03a0f021 	move	s8,sp
a0803168:	afc40010 	sw	a0,16(s8)
a080316c:	00a01021 	move	v0,a1
a0803170:	afc60018 	sw	a2,24(s8)
a0803174:	a3c20014 	sb	v0,20(s8)
a0803178:	8fc20010 	lw	v0,16(s8)
a080317c:	afc20000 	sw	v0,0(s8)
a0803180:	08200c6b 	j	a08031ac <kmemset+0x50>
a0803184:	00000000 	nop
a0803188:	8fc30000 	lw	v1,0(s8)
a080318c:	93c20014 	lbu	v0,20(s8)
a0803190:	a0620000 	sb	v0,0(v1)
a0803194:	8fc20000 	lw	v0,0(s8)
a0803198:	24420001 	addiu	v0,v0,1
a080319c:	afc20000 	sw	v0,0(s8)
a08031a0:	8fc20018 	lw	v0,24(s8)
a08031a4:	2442ffff 	addiu	v0,v0,-1
a08031a8:	afc20018 	sw	v0,24(s8)
a08031ac:	8fc20018 	lw	v0,24(s8)
a08031b0:	1440fff5 	bnez	v0,a0803188 <kmemset+0x2c>
a08031b4:	00000000 	nop
a08031b8:	03c0e821 	move	sp,s8
a08031bc:	8fbe000c 	lw	s8,12(sp)
a08031c0:	27bd0010 	addiu	sp,sp,16
a08031c4:	03e00008 	jr	ra
a08031c8:	00000000 	nop

a08031cc <kbzero>:
a08031cc:	27bdffe8 	addiu	sp,sp,-24
a08031d0:	afbf0014 	sw	ra,20(sp)
a08031d4:	afbe0010 	sw	s8,16(sp)
a08031d8:	03a0f021 	move	s8,sp
a08031dc:	afc40018 	sw	a0,24(s8)
a08031e0:	afc5001c 	sw	a1,28(s8)
a08031e4:	8fc40018 	lw	a0,24(s8)
a08031e8:	00002821 	move	a1,zero
a08031ec:	8fc6001c 	lw	a2,28(s8)
a08031f0:	0c200c57 	jal	a080315c <kmemset>
a08031f4:	00000000 	nop
a08031f8:	03c0e821 	move	sp,s8
a08031fc:	8fbf0014 	lw	ra,20(sp)
a0803200:	8fbe0010 	lw	s8,16(sp)
a0803204:	27bd0018 	addiu	sp,sp,24
a0803208:	03e00008 	jr	ra
a080320c:	00000000 	nop

a0803210 <kstrcmp>:
a0803210:	27bdfff0 	addiu	sp,sp,-16
a0803214:	afbe000c 	sw	s8,12(sp)
a0803218:	03a0f021 	move	s8,sp
a080321c:	afc40010 	sw	a0,16(s8)
a0803220:	afc50014 	sw	a1,20(s8)
a0803224:	8fc20010 	lw	v0,16(s8)
a0803228:	80420000 	lb	v0,0(v0)
a080322c:	10400014 	beqz	v0,a0803280 <kstrcmp+0x70>
a0803230:	00000000 	nop
a0803234:	8fc20014 	lw	v0,20(s8)
a0803238:	80420000 	lb	v0,0(v0)
a080323c:	10400010 	beqz	v0,a0803280 <kstrcmp+0x70>
a0803240:	00000000 	nop
a0803244:	8fc20010 	lw	v0,16(s8)
a0803248:	80430000 	lb	v1,0(v0)
a080324c:	8fc20014 	lw	v0,20(s8)
a0803250:	80420000 	lb	v0,0(v0)
a0803254:	00621026 	xor	v0,v1,v0
a0803258:	2c420001 	sltiu	v0,v0,1
a080325c:	304300ff 	andi	v1,v0,0xff
a0803260:	8fc20010 	lw	v0,16(s8)
a0803264:	24420001 	addiu	v0,v0,1
a0803268:	afc20010 	sw	v0,16(s8)
a080326c:	8fc20014 	lw	v0,20(s8)
a0803270:	24420001 	addiu	v0,v0,1
a0803274:	afc20014 	sw	v0,20(s8)
a0803278:	1460ffea 	bnez	v1,a0803224 <kstrcmp+0x14>
a080327c:	00000000 	nop
a0803280:	8fc20010 	lw	v0,16(s8)
a0803284:	80420000 	lb	v0,0(v0)
a0803288:	14400008 	bnez	v0,a08032ac <kstrcmp+0x9c>
a080328c:	00000000 	nop
a0803290:	8fc20014 	lw	v0,20(s8)
a0803294:	80420000 	lb	v0,0(v0)
a0803298:	14400004 	bnez	v0,a08032ac <kstrcmp+0x9c>
a080329c:	00000000 	nop
a08032a0:	afc00000 	sw	zero,0(s8)
a08032a4:	08200cb5 	j	a08032d4 <kstrcmp+0xc4>
a08032a8:	00000000 	nop
a08032ac:	8fc20010 	lw	v0,16(s8)
a08032b0:	80420000 	lb	v0,0(v0)
a08032b4:	14400005 	bnez	v0,a08032cc <kstrcmp+0xbc>
a08032b8:	00000000 	nop
a08032bc:	2402ffff 	li	v0,-1
a08032c0:	afc20000 	sw	v0,0(s8)
a08032c4:	08200cb5 	j	a08032d4 <kstrcmp+0xc4>
a08032c8:	00000000 	nop
a08032cc:	24020001 	li	v0,1
a08032d0:	afc20000 	sw	v0,0(s8)
a08032d4:	8fc20000 	lw	v0,0(s8)
a08032d8:	03c0e821 	move	sp,s8
a08032dc:	8fbe000c 	lw	s8,12(sp)
a08032e0:	27bd0010 	addiu	sp,sp,16
a08032e4:	03e00008 	jr	ra
a08032e8:	00000000 	nop

a08032ec <kstrcpy>:
a08032ec:	27bdfff0 	addiu	sp,sp,-16
a08032f0:	afbe000c 	sw	s8,12(sp)
a08032f4:	03a0f021 	move	s8,sp
a08032f8:	afc40010 	sw	a0,16(s8)
a08032fc:	afc50014 	sw	a1,20(s8)
a0803300:	8fc20010 	lw	v0,16(s8)
a0803304:	afc20000 	sw	v0,0(s8)
a0803308:	08200cce 	j	a0803338 <kstrcpy+0x4c>
a080330c:	00000000 	nop
a0803310:	8fc20014 	lw	v0,20(s8)
a0803314:	80430000 	lb	v1,0(v0)
a0803318:	8fc20010 	lw	v0,16(s8)
a080331c:	a0430000 	sb	v1,0(v0)
a0803320:	8fc20010 	lw	v0,16(s8)
a0803324:	24420001 	addiu	v0,v0,1
a0803328:	afc20010 	sw	v0,16(s8)
a080332c:	8fc20014 	lw	v0,20(s8)
a0803330:	24420001 	addiu	v0,v0,1
a0803334:	afc20014 	sw	v0,20(s8)
a0803338:	8fc20014 	lw	v0,20(s8)
a080333c:	80420000 	lb	v0,0(v0)
a0803340:	1440fff3 	bnez	v0,a0803310 <kstrcpy+0x24>
a0803344:	00000000 	nop
a0803348:	8fc20010 	lw	v0,16(s8)
a080334c:	a0400000 	sb	zero,0(v0)
a0803350:	8fc20000 	lw	v0,0(s8)
a0803354:	03c0e821 	move	sp,s8
a0803358:	8fbe000c 	lw	s8,12(sp)
a080335c:	27bd0010 	addiu	sp,sp,16
a0803360:	03e00008 	jr	ra
a0803364:	00000000 	nop
	...

a0803370 <mini_strlen>:
a0803370:	27bdfff0 	addiu	sp,sp,-16
a0803374:	afbe000c 	sw	s8,12(sp)
a0803378:	03a0f021 	move	s8,sp
a080337c:	afc40010 	sw	a0,16(s8)
a0803380:	afc00000 	sw	zero,0(s8)
a0803384:	08200ce6 	j	a0803398 <mini_strlen+0x28>
a0803388:	00000000 	nop
a080338c:	8fc20000 	lw	v0,0(s8)
a0803390:	24420001 	addiu	v0,v0,1
a0803394:	afc20000 	sw	v0,0(s8)
a0803398:	8fc30010 	lw	v1,16(s8)
a080339c:	8fc20000 	lw	v0,0(s8)
a08033a0:	00621021 	addu	v0,v1,v0
a08033a4:	80420000 	lb	v0,0(v0)
a08033a8:	1440fff8 	bnez	v0,a080338c <mini_strlen+0x1c>
a08033ac:	00000000 	nop
a08033b0:	8fc20000 	lw	v0,0(s8)
a08033b4:	03c0e821 	move	sp,s8
a08033b8:	8fbe000c 	lw	s8,12(sp)
a08033bc:	27bd0010 	addiu	sp,sp,16
a08033c0:	03e00008 	jr	ra
a08033c4:	00000000 	nop

a08033c8 <mini_itoa>:
a08033c8:	27bdffc8 	addiu	sp,sp,-56
a08033cc:	afbe0034 	sw	s8,52(sp)
a08033d0:	03a0f021 	move	s8,sp
a08033d4:	afc40038 	sw	a0,56(s8)
a08033d8:	afc5003c 	sw	a1,60(s8)
a08033dc:	afc60040 	sw	a2,64(s8)
a08033e0:	afc70044 	sw	a3,68(s8)
a08033e4:	8fc20048 	lw	v0,72(s8)
a08033e8:	afc20014 	sw	v0,20(s8)
a08033ec:	afc00010 	sw	zero,16(s8)
a08033f0:	8fc2003c 	lw	v0,60(s8)
a08033f4:	2c420011 	sltiu	v0,v0,17
a08033f8:	14400004 	bnez	v0,a080340c <mini_itoa+0x44>
a08033fc:	00000000 	nop
a0803400:	afc00020 	sw	zero,32(s8)
a0803404:	08200d8c 	j	a0803630 <mini_itoa+0x268>
a0803408:	00000000 	nop
a080340c:	8fc20038 	lw	v0,56(s8)
a0803410:	04410009 	bgez	v0,a0803438 <mini_itoa+0x70>
a0803414:	00000000 	nop
a0803418:	8fc20044 	lw	v0,68(s8)
a080341c:	14400006 	bnez	v0,a0803438 <mini_itoa+0x70>
a0803420:	00000000 	nop
a0803424:	24020001 	li	v0,1
a0803428:	afc20010 	sw	v0,16(s8)
a080342c:	8fc20038 	lw	v0,56(s8)
a0803430:	00021023 	negu	v0,v0
a0803434:	afc20038 	sw	v0,56(s8)
a0803438:	8fc30038 	lw	v1,56(s8)
a080343c:	8fc2003c 	lw	v0,60(s8)
a0803440:	0062001b 	divu	zero,v1,v0
a0803444:	004001f4 	teq	v0,zero,0x7
a0803448:	00001010 	mfhi	v0
a080344c:	afc20004 	sw	v0,4(s8)
a0803450:	8fc20004 	lw	v0,4(s8)
a0803454:	2842000a 	slti	v0,v0,10
a0803458:	1040000a 	beqz	v0,a0803484 <mini_itoa+0xbc>
a080345c:	00000000 	nop
a0803460:	8fc20004 	lw	v0,4(s8)
a0803464:	304200ff 	andi	v0,v0,0xff
a0803468:	24420030 	addiu	v0,v0,48
a080346c:	304200ff 	andi	v0,v0,0xff
a0803470:	00021600 	sll	v0,v0,0x18
a0803474:	00021603 	sra	v0,v0,0x18
a0803478:	afc2001c 	sw	v0,28(s8)
a080347c:	08200d34 	j	a08034d0 <mini_itoa+0x108>
a0803480:	00000000 	nop
a0803484:	8fc20040 	lw	v0,64(s8)
a0803488:	10400005 	beqz	v0,a08034a0 <mini_itoa+0xd8>
a080348c:	00000000 	nop
a0803490:	24020041 	li	v0,65
a0803494:	afc20018 	sw	v0,24(s8)
a0803498:	08200d2a 	j	a08034a8 <mini_itoa+0xe0>
a080349c:	00000000 	nop
a08034a0:	24030061 	li	v1,97
a08034a4:	afc30018 	sw	v1,24(s8)
a08034a8:	8fc20004 	lw	v0,4(s8)
a08034ac:	304200ff 	andi	v0,v0,0xff
a08034b0:	8fc40018 	lw	a0,24(s8)
a08034b4:	00821021 	addu	v0,a0,v0
a08034b8:	304200ff 	andi	v0,v0,0xff
a08034bc:	2442fff6 	addiu	v0,v0,-10
a08034c0:	304200ff 	andi	v0,v0,0xff
a08034c4:	00021600 	sll	v0,v0,0x18
a08034c8:	00021603 	sra	v0,v0,0x18
a08034cc:	afc2001c 	sw	v0,28(s8)
a08034d0:	8fc20014 	lw	v0,20(s8)
a08034d4:	8fc3001c 	lw	v1,28(s8)
a08034d8:	a0430000 	sb	v1,0(v0)
a08034dc:	8fc20014 	lw	v0,20(s8)
a08034e0:	24420001 	addiu	v0,v0,1
a08034e4:	afc20014 	sw	v0,20(s8)
a08034e8:	8fc30038 	lw	v1,56(s8)
a08034ec:	8fc2003c 	lw	v0,60(s8)
a08034f0:	0062001b 	divu	zero,v1,v0
a08034f4:	004001f4 	teq	v0,zero,0x7
a08034f8:	00001012 	mflo	v0
a08034fc:	afc20038 	sw	v0,56(s8)
a0803500:	8fc20038 	lw	v0,56(s8)
a0803504:	1c40ffcc 	bgtz	v0,a0803438 <mini_itoa+0x70>
a0803508:	00000000 	nop
a080350c:	8fc20014 	lw	v0,20(s8)
a0803510:	8fc30048 	lw	v1,72(s8)
a0803514:	00431023 	subu	v0,v0,v1
a0803518:	afc2000c 	sw	v0,12(s8)
a080351c:	08200d52 	j	a0803548 <mini_itoa+0x180>
a0803520:	00000000 	nop
a0803524:	8fc30014 	lw	v1,20(s8)
a0803528:	24020030 	li	v0,48
a080352c:	a0620000 	sb	v0,0(v1)
a0803530:	8fc20014 	lw	v0,20(s8)
a0803534:	24420001 	addiu	v0,v0,1
a0803538:	afc20014 	sw	v0,20(s8)
a080353c:	8fc2000c 	lw	v0,12(s8)
a0803540:	24420001 	addiu	v0,v0,1
a0803544:	afc2000c 	sw	v0,12(s8)
a0803548:	8fc2000c 	lw	v0,12(s8)
a080354c:	8fc3004c 	lw	v1,76(s8)
a0803550:	0043102b 	sltu	v0,v0,v1
a0803554:	1440fff3 	bnez	v0,a0803524 <mini_itoa+0x15c>
a0803558:	00000000 	nop
a080355c:	8fc20010 	lw	v0,16(s8)
a0803560:	10400007 	beqz	v0,a0803580 <mini_itoa+0x1b8>
a0803564:	00000000 	nop
a0803568:	8fc30014 	lw	v1,20(s8)
a080356c:	2402002d 	li	v0,45
a0803570:	a0620000 	sb	v0,0(v1)
a0803574:	8fc20014 	lw	v0,20(s8)
a0803578:	24420001 	addiu	v0,v0,1
a080357c:	afc20014 	sw	v0,20(s8)
a0803580:	8fc20014 	lw	v0,20(s8)
a0803584:	a0400000 	sb	zero,0(v0)
a0803588:	8fc30014 	lw	v1,20(s8)
a080358c:	8fc20048 	lw	v0,72(s8)
a0803590:	00621023 	subu	v0,v1,v0
a0803594:	afc20008 	sw	v0,8(s8)
a0803598:	afc0000c 	sw	zero,12(s8)
a080359c:	08200d84 	j	a0803610 <mini_itoa+0x248>
a08035a0:	00000000 	nop
a08035a4:	8fc30048 	lw	v1,72(s8)
a08035a8:	8fc2000c 	lw	v0,12(s8)
a08035ac:	00621021 	addu	v0,v1,v0
a08035b0:	90420000 	lbu	v0,0(v0)
a08035b4:	a3c20000 	sb	v0,0(s8)
a08035b8:	8fc30048 	lw	v1,72(s8)
a08035bc:	8fc2000c 	lw	v0,12(s8)
a08035c0:	00622021 	addu	a0,v1,v0
a08035c4:	8fc30008 	lw	v1,8(s8)
a08035c8:	8fc2000c 	lw	v0,12(s8)
a08035cc:	00621023 	subu	v0,v1,v0
a08035d0:	2443ffff 	addiu	v1,v0,-1
a08035d4:	8fc20048 	lw	v0,72(s8)
a08035d8:	00431021 	addu	v0,v0,v1
a08035dc:	80420000 	lb	v0,0(v0)
a08035e0:	a0820000 	sb	v0,0(a0)
a08035e4:	8fc30008 	lw	v1,8(s8)
a08035e8:	8fc2000c 	lw	v0,12(s8)
a08035ec:	00621023 	subu	v0,v1,v0
a08035f0:	2443ffff 	addiu	v1,v0,-1
a08035f4:	8fc20048 	lw	v0,72(s8)
a08035f8:	00431821 	addu	v1,v0,v1
a08035fc:	93c20000 	lbu	v0,0(s8)
a0803600:	a0620000 	sb	v0,0(v1)
a0803604:	8fc2000c 	lw	v0,12(s8)
a0803608:	24420001 	addiu	v0,v0,1
a080360c:	afc2000c 	sw	v0,12(s8)
a0803610:	8fc20008 	lw	v0,8(s8)
a0803614:	00021842 	srl	v1,v0,0x1
a0803618:	8fc2000c 	lw	v0,12(s8)
a080361c:	0043102b 	sltu	v0,v0,v1
a0803620:	1440ffe0 	bnez	v0,a08035a4 <mini_itoa+0x1dc>
a0803624:	00000000 	nop
a0803628:	8fc20008 	lw	v0,8(s8)
a080362c:	afc20020 	sw	v0,32(s8)
a0803630:	8fc20020 	lw	v0,32(s8)
a0803634:	03c0e821 	move	sp,s8
a0803638:	8fbe0034 	lw	s8,52(sp)
a080363c:	27bd0038 	addiu	sp,sp,56
a0803640:	03e00008 	jr	ra
a0803644:	00000000 	nop

a0803648 <_putc>:
a0803648:	27bdfff0 	addiu	sp,sp,-16
a080364c:	afbe000c 	sw	s8,12(sp)
a0803650:	03a0f021 	move	s8,sp
a0803654:	afc40010 	sw	a0,16(s8)
a0803658:	afc50014 	sw	a1,20(s8)
a080365c:	8fc20014 	lw	v0,20(s8)
a0803660:	8c420004 	lw	v0,4(v0)
a0803664:	00401821 	move	v1,v0
a0803668:	8fc20014 	lw	v0,20(s8)
a080366c:	8c420000 	lw	v0,0(v0)
a0803670:	00621023 	subu	v0,v1,v0
a0803674:	24420001 	addiu	v0,v0,1
a0803678:	00401821 	move	v1,v0
a080367c:	8fc20014 	lw	v0,20(s8)
a0803680:	8c420008 	lw	v0,8(v0)
a0803684:	0062102b 	sltu	v0,v1,v0
a0803688:	14400004 	bnez	v0,a080369c <_putc+0x54>
a080368c:	00000000 	nop
a0803690:	afc00000 	sw	zero,0(s8)
a0803694:	08200db5 	j	a08036d4 <_putc+0x8c>
a0803698:	00000000 	nop
a080369c:	8fc20014 	lw	v0,20(s8)
a08036a0:	8c430004 	lw	v1,4(v0)
a08036a4:	8fc20010 	lw	v0,16(s8)
a08036a8:	00021600 	sll	v0,v0,0x18
a08036ac:	00021603 	sra	v0,v0,0x18
a08036b0:	a0620000 	sb	v0,0(v1)
a08036b4:	24630001 	addiu	v1,v1,1
a08036b8:	8fc20014 	lw	v0,20(s8)
a08036bc:	ac430004 	sw	v1,4(v0)
a08036c0:	8fc20014 	lw	v0,20(s8)
a08036c4:	8c420004 	lw	v0,4(v0)
a08036c8:	a0400000 	sb	zero,0(v0)
a08036cc:	24020001 	li	v0,1
a08036d0:	afc20000 	sw	v0,0(s8)
a08036d4:	8fc20000 	lw	v0,0(s8)
a08036d8:	03c0e821 	move	sp,s8
a08036dc:	8fbe000c 	lw	s8,12(sp)
a08036e0:	27bd0010 	addiu	sp,sp,16
a08036e4:	03e00008 	jr	ra
a08036e8:	00000000 	nop

a08036ec <_puts>:
a08036ec:	27bdfff0 	addiu	sp,sp,-16
a08036f0:	afbe000c 	sw	s8,12(sp)
a08036f4:	03a0f021 	move	s8,sp
a08036f8:	afc40010 	sw	a0,16(s8)
a08036fc:	afc50014 	sw	a1,20(s8)
a0803700:	afc60018 	sw	a2,24(s8)
a0803704:	8fc20018 	lw	v0,24(s8)
a0803708:	8c440008 	lw	a0,8(v0)
a080370c:	8fc20018 	lw	v0,24(s8)
a0803710:	8c420000 	lw	v0,0(v0)
a0803714:	00401821 	move	v1,v0
a0803718:	8fc20018 	lw	v0,24(s8)
a080371c:	8c420004 	lw	v0,4(v0)
a0803720:	00621023 	subu	v0,v1,v0
a0803724:	00821021 	addu	v0,a0,v0
a0803728:	2443ffff 	addiu	v1,v0,-1
a080372c:	8fc20014 	lw	v0,20(s8)
a0803730:	0062102b 	sltu	v0,v1,v0
a0803734:	1040000c 	beqz	v0,a0803768 <_puts+0x7c>
a0803738:	00000000 	nop
a080373c:	8fc20018 	lw	v0,24(s8)
a0803740:	8c440008 	lw	a0,8(v0)
a0803744:	8fc20018 	lw	v0,24(s8)
a0803748:	8c420000 	lw	v0,0(v0)
a080374c:	00401821 	move	v1,v0
a0803750:	8fc20018 	lw	v0,24(s8)
a0803754:	8c420004 	lw	v0,4(v0)
a0803758:	00621023 	subu	v0,v1,v0
a080375c:	00821021 	addu	v0,a0,v0
a0803760:	2442ffff 	addiu	v0,v0,-1
a0803764:	afc20014 	sw	v0,20(s8)
a0803768:	afc00000 	sw	zero,0(s8)
a080376c:	08200dea 	j	a08037a8 <_puts+0xbc>
a0803770:	00000000 	nop
a0803774:	8fc20018 	lw	v0,24(s8)
a0803778:	8c440004 	lw	a0,4(v0)
a080377c:	8fc30010 	lw	v1,16(s8)
a0803780:	8fc20000 	lw	v0,0(s8)
a0803784:	00621021 	addu	v0,v1,v0
a0803788:	80420000 	lb	v0,0(v0)
a080378c:	a0820000 	sb	v0,0(a0)
a0803790:	24830001 	addiu	v1,a0,1
a0803794:	8fc20018 	lw	v0,24(s8)
a0803798:	ac430004 	sw	v1,4(v0)
a080379c:	8fc20000 	lw	v0,0(s8)
a08037a0:	24420001 	addiu	v0,v0,1
a08037a4:	afc20000 	sw	v0,0(s8)
a08037a8:	8fc20000 	lw	v0,0(s8)
a08037ac:	8fc30014 	lw	v1,20(s8)
a08037b0:	0043102b 	sltu	v0,v0,v1
a08037b4:	1440ffef 	bnez	v0,a0803774 <_puts+0x88>
a08037b8:	00000000 	nop
a08037bc:	8fc20018 	lw	v0,24(s8)
a08037c0:	8c420004 	lw	v0,4(v0)
a08037c4:	a0400000 	sb	zero,0(v0)
a08037c8:	8fc20014 	lw	v0,20(s8)
a08037cc:	03c0e821 	move	sp,s8
a08037d0:	8fbe000c 	lw	s8,12(sp)
a08037d4:	27bd0010 	addiu	sp,sp,16
a08037d8:	03e00008 	jr	ra
a08037dc:	00000000 	nop

a08037e0 <mini_vsnprintf>:
a08037e0:	27bdff98 	addiu	sp,sp,-104
a08037e4:	afbf0064 	sw	ra,100(sp)
a08037e8:	afbe0060 	sw	s8,96(sp)
a08037ec:	03a0f021 	move	s8,sp
a08037f0:	afc40068 	sw	a0,104(s8)
a08037f4:	afc5006c 	sw	a1,108(s8)
a08037f8:	afc60070 	sw	a2,112(s8)
a08037fc:	afc70074 	sw	a3,116(s8)
a0803800:	8fc20068 	lw	v0,104(s8)
a0803804:	afc20028 	sw	v0,40(s8)
a0803808:	8fc20068 	lw	v0,104(s8)
a080380c:	afc2002c 	sw	v0,44(s8)
a0803810:	8fc2006c 	lw	v0,108(s8)
a0803814:	afc20030 	sw	v0,48(s8)
a0803818:	08200f01 	j	a0803c04 <mini_vsnprintf+0x424>
a080381c:	00000000 	nop
a0803820:	8fc2002c 	lw	v0,44(s8)
a0803824:	00401821 	move	v1,v0
a0803828:	8fc20028 	lw	v0,40(s8)
a080382c:	00621023 	subu	v0,v1,v0
a0803830:	24420001 	addiu	v0,v0,1
a0803834:	00401821 	move	v1,v0
a0803838:	8fc20030 	lw	v0,48(s8)
a080383c:	0062102b 	sltu	v0,v1,v0
a0803840:	104000fb 	beqz	v0,a0803c30 <mini_vsnprintf+0x450>
a0803844:	00000000 	nop
a0803848:	83c30025 	lb	v1,37(s8)
a080384c:	24020025 	li	v0,37
a0803850:	10620009 	beq	v1,v0,a0803878 <mini_vsnprintf+0x98>
a0803854:	00000000 	nop
a0803858:	83c20025 	lb	v0,37(s8)
a080385c:	27c30028 	addiu	v1,s8,40
a0803860:	00402021 	move	a0,v0
a0803864:	00602821 	move	a1,v1
a0803868:	0c200d92 	jal	a0803648 <_putc>
a080386c:	00000000 	nop
a0803870:	08200f01 	j	a0803c04 <mini_vsnprintf+0x424>
a0803874:	00000000 	nop
a0803878:	a3c00024 	sb	zero,36(s8)
a080387c:	afc00020 	sw	zero,32(s8)
a0803880:	8fc20070 	lw	v0,112(s8)
a0803884:	90420000 	lbu	v0,0(v0)
a0803888:	a3c20025 	sb	v0,37(s8)
a080388c:	8fc20070 	lw	v0,112(s8)
a0803890:	24420001 	addiu	v0,v0,1
a0803894:	afc20070 	sw	v0,112(s8)
a0803898:	83c30025 	lb	v1,37(s8)
a080389c:	24020030 	li	v0,48
a08038a0:	14620024 	bne	v1,v0,a0803934 <mini_vsnprintf+0x154>
a08038a4:	00000000 	nop
a08038a8:	08200e42 	j	a0803908 <mini_vsnprintf+0x128>
a08038ac:	00000000 	nop
a08038b0:	83c20025 	lb	v0,37(s8)
a08038b4:	104000de 	beqz	v0,a0803c30 <mini_vsnprintf+0x450>
a08038b8:	00000000 	nop
a08038bc:	83c20025 	lb	v0,37(s8)
a08038c0:	28420030 	slti	v0,v0,48
a08038c4:	1440001b 	bnez	v0,a0803934 <mini_vsnprintf+0x154>
a08038c8:	00000000 	nop
a08038cc:	83c20025 	lb	v0,37(s8)
a08038d0:	2842003a 	slti	v0,v0,58
a08038d4:	10400017 	beqz	v0,a0803934 <mini_vsnprintf+0x154>
a08038d8:	00000000 	nop
a08038dc:	83c20024 	lb	v0,36(s8)
a08038e0:	00021840 	sll	v1,v0,0x1
a08038e4:	00031080 	sll	v0,v1,0x2
a08038e8:	00621021 	addu	v0,v1,v0
a08038ec:	304300ff 	andi	v1,v0,0xff
a08038f0:	93c20025 	lbu	v0,37(s8)
a08038f4:	00621021 	addu	v0,v1,v0
a08038f8:	304200ff 	andi	v0,v0,0xff
a08038fc:	2442ffd0 	addiu	v0,v0,-48
a0803900:	304200ff 	andi	v0,v0,0xff
a0803904:	a3c20024 	sb	v0,36(s8)
a0803908:	8fc20070 	lw	v0,112(s8)
a080390c:	90420000 	lbu	v0,0(v0)
a0803910:	a3c20025 	sb	v0,37(s8)
a0803914:	83c20025 	lb	v0,37(s8)
a0803918:	0002102b 	sltu	v0,zero,v0
a080391c:	304300ff 	andi	v1,v0,0xff
a0803920:	8fc20070 	lw	v0,112(s8)
a0803924:	24420001 	addiu	v0,v0,1
a0803928:	afc20070 	sw	v0,112(s8)
a080392c:	1460ffe0 	bnez	v1,a08038b0 <mini_vsnprintf+0xd0>
a0803930:	00000000 	nop
a0803934:	83c30025 	lb	v1,37(s8)
a0803938:	2402006c 	li	v0,108
a080393c:	14620009 	bne	v1,v0,a0803964 <mini_vsnprintf+0x184>
a0803940:	00000000 	nop
a0803944:	24020001 	li	v0,1
a0803948:	afc20020 	sw	v0,32(s8)
a080394c:	8fc20070 	lw	v0,112(s8)
a0803950:	90420000 	lbu	v0,0(v0)
a0803954:	a3c20025 	sb	v0,37(s8)
a0803958:	8fc20070 	lw	v0,112(s8)
a080395c:	24420001 	addiu	v0,v0,1
a0803960:	afc20070 	sw	v0,112(s8)
a0803964:	83c20025 	lb	v0,37(s8)
a0803968:	afc20058 	sw	v0,88(s8)
a080396c:	2402006c 	li	v0,108
a0803970:	8fc30058 	lw	v1,88(s8)
a0803974:	1062002a 	beq	v1,v0,a0803a20 <mini_vsnprintf+0x240>
a0803978:	00000000 	nop
a080397c:	8fc30058 	lw	v1,88(s8)
a0803980:	2862006d 	slti	v0,v1,109
a0803984:	10400018 	beqz	v0,a08039e8 <mini_vsnprintf+0x208>
a0803988:	00000000 	nop
a080398c:	24020063 	li	v0,99
a0803990:	8fc30058 	lw	v1,88(s8)
a0803994:	10620076 	beq	v1,v0,a0803b70 <mini_vsnprintf+0x390>
a0803998:	00000000 	nop
a080399c:	8fc30058 	lw	v1,88(s8)
a08039a0:	28620064 	slti	v0,v1,100
a08039a4:	1040000a 	beqz	v0,a08039d0 <mini_vsnprintf+0x1f0>
a08039a8:	00000000 	nop
a08039ac:	8fc20058 	lw	v0,88(s8)
a08039b0:	1040009f 	beqz	v0,a0803c30 <mini_vsnprintf+0x450>
a08039b4:	00000000 	nop
a08039b8:	24020058 	li	v0,88
a08039bc:	8fc30058 	lw	v1,88(s8)
a08039c0:	10620043 	beq	v1,v0,a0803ad0 <mini_vsnprintf+0x2f0>
a08039c4:	00000000 	nop
a08039c8:	08200efb 	j	a0803bec <mini_vsnprintf+0x40c>
a08039cc:	00000000 	nop
a08039d0:	24020064 	li	v0,100
a08039d4:	8fc30058 	lw	v1,88(s8)
a08039d8:	10620015 	beq	v1,v0,a0803a30 <mini_vsnprintf+0x250>
a08039dc:	00000000 	nop
a08039e0:	08200efb 	j	a0803bec <mini_vsnprintf+0x40c>
a08039e4:	00000000 	nop
a08039e8:	24020075 	li	v0,117
a08039ec:	8fc30058 	lw	v1,88(s8)
a08039f0:	1062000f 	beq	v1,v0,a0803a30 <mini_vsnprintf+0x250>
a08039f4:	00000000 	nop
a08039f8:	24020078 	li	v0,120
a08039fc:	8fc30058 	lw	v1,88(s8)
a0803a00:	10620033 	beq	v1,v0,a0803ad0 <mini_vsnprintf+0x2f0>
a0803a04:	00000000 	nop
a0803a08:	24020073 	li	v0,115
a0803a0c:	8fc30058 	lw	v1,88(s8)
a0803a10:	10620065 	beq	v1,v0,a0803ba8 <mini_vsnprintf+0x3c8>
a0803a14:	00000000 	nop
a0803a18:	08200efb 	j	a0803bec <mini_vsnprintf+0x40c>
a0803a1c:	00000000 	nop
a0803a20:	24020001 	li	v0,1
a0803a24:	afc20020 	sw	v0,32(s8)
a0803a28:	08200f01 	j	a0803c04 <mini_vsnprintf+0x424>
a0803a2c:	00000000 	nop
a0803a30:	8fc20020 	lw	v0,32(s8)
a0803a34:	14400009 	bnez	v0,a0803a5c <mini_vsnprintf+0x27c>
a0803a38:	00000000 	nop
a0803a3c:	8fc30074 	lw	v1,116(s8)
a0803a40:	24620004 	addiu	v0,v1,4
a0803a44:	afc20074 	sw	v0,116(s8)
a0803a48:	00601021 	move	v0,v1
a0803a4c:	8c420000 	lw	v0,0(v0)
a0803a50:	afc20054 	sw	v0,84(s8)
a0803a54:	08200e9d 	j	a0803a74 <mini_vsnprintf+0x294>
a0803a58:	00000000 	nop
a0803a5c:	8fc30074 	lw	v1,116(s8)
a0803a60:	24620004 	addiu	v0,v1,4
a0803a64:	afc20074 	sw	v0,116(s8)
a0803a68:	00601021 	move	v0,v1
a0803a6c:	8c420000 	lw	v0,0(v0)
a0803a70:	afc20054 	sw	v0,84(s8)
a0803a74:	83c20025 	lb	v0,37(s8)
a0803a78:	38420075 	xori	v0,v0,0x75
a0803a7c:	2c470001 	sltiu	a3,v0,1
a0803a80:	83c30024 	lb	v1,36(s8)
a0803a84:	27c20034 	addiu	v0,s8,52
a0803a88:	afa20010 	sw	v0,16(sp)
a0803a8c:	afa30014 	sw	v1,20(sp)
a0803a90:	8fc40054 	lw	a0,84(s8)
a0803a94:	2405000a 	li	a1,10
a0803a98:	00003021 	move	a2,zero
a0803a9c:	0c200cf2 	jal	a08033c8 <mini_itoa>
a0803aa0:	00000000 	nop
a0803aa4:	afc20018 	sw	v0,24(s8)
a0803aa8:	27c20034 	addiu	v0,s8,52
a0803aac:	27c30028 	addiu	v1,s8,40
a0803ab0:	00402021 	move	a0,v0
a0803ab4:	8fc50018 	lw	a1,24(s8)
a0803ab8:	00603021 	move	a2,v1
a0803abc:	0c200dbb 	jal	a08036ec <_puts>
a0803ac0:	00000000 	nop
a0803ac4:	afc00020 	sw	zero,32(s8)
a0803ac8:	08200f01 	j	a0803c04 <mini_vsnprintf+0x424>
a0803acc:	00000000 	nop
a0803ad0:	8fc20020 	lw	v0,32(s8)
a0803ad4:	14400009 	bnez	v0,a0803afc <mini_vsnprintf+0x31c>
a0803ad8:	00000000 	nop
a0803adc:	8fc30074 	lw	v1,116(s8)
a0803ae0:	24620004 	addiu	v0,v1,4
a0803ae4:	afc20074 	sw	v0,116(s8)
a0803ae8:	00601021 	move	v0,v1
a0803aec:	8c420000 	lw	v0,0(v0)
a0803af0:	afc20050 	sw	v0,80(s8)
a0803af4:	08200ec5 	j	a0803b14 <mini_vsnprintf+0x334>
a0803af8:	00000000 	nop
a0803afc:	8fc30074 	lw	v1,116(s8)
a0803b00:	24620004 	addiu	v0,v1,4
a0803b04:	afc20074 	sw	v0,116(s8)
a0803b08:	00601021 	move	v0,v1
a0803b0c:	8c420000 	lw	v0,0(v0)
a0803b10:	afc20050 	sw	v0,80(s8)
a0803b14:	83c20025 	lb	v0,37(s8)
a0803b18:	38420058 	xori	v0,v0,0x58
a0803b1c:	2c460001 	sltiu	a2,v0,1
a0803b20:	83c30024 	lb	v1,36(s8)
a0803b24:	27c20034 	addiu	v0,s8,52
a0803b28:	afa20010 	sw	v0,16(sp)
a0803b2c:	afa30014 	sw	v1,20(sp)
a0803b30:	8fc40050 	lw	a0,80(s8)
a0803b34:	24050010 	li	a1,16
a0803b38:	24070001 	li	a3,1
a0803b3c:	0c200cf2 	jal	a08033c8 <mini_itoa>
a0803b40:	00000000 	nop
a0803b44:	afc20018 	sw	v0,24(s8)
a0803b48:	27c20034 	addiu	v0,s8,52
a0803b4c:	27c30028 	addiu	v1,s8,40
a0803b50:	00402021 	move	a0,v0
a0803b54:	8fc50018 	lw	a1,24(s8)
a0803b58:	00603021 	move	a2,v1
a0803b5c:	0c200dbb 	jal	a08036ec <_puts>
a0803b60:	00000000 	nop
a0803b64:	afc00020 	sw	zero,32(s8)
a0803b68:	08200f01 	j	a0803c04 <mini_vsnprintf+0x424>
a0803b6c:	00000000 	nop
a0803b70:	8fc30074 	lw	v1,116(s8)
a0803b74:	24620004 	addiu	v0,v1,4
a0803b78:	afc20074 	sw	v0,116(s8)
a0803b7c:	00601021 	move	v0,v1
a0803b80:	8c420000 	lw	v0,0(v0)
a0803b84:	00021600 	sll	v0,v0,0x18
a0803b88:	00021603 	sra	v0,v0,0x18
a0803b8c:	27c30028 	addiu	v1,s8,40
a0803b90:	00402021 	move	a0,v0
a0803b94:	00602821 	move	a1,v1
a0803b98:	0c200d92 	jal	a0803648 <_putc>
a0803b9c:	00000000 	nop
a0803ba0:	08200f01 	j	a0803c04 <mini_vsnprintf+0x424>
a0803ba4:	00000000 	nop
a0803ba8:	8fc30074 	lw	v1,116(s8)
a0803bac:	24620004 	addiu	v0,v1,4
a0803bb0:	afc20074 	sw	v0,116(s8)
a0803bb4:	00601021 	move	v0,v1
a0803bb8:	8c420000 	lw	v0,0(v0)
a0803bbc:	afc2001c 	sw	v0,28(s8)
a0803bc0:	8fc4001c 	lw	a0,28(s8)
a0803bc4:	0c200cdc 	jal	a0803370 <mini_strlen>
a0803bc8:	00000000 	nop
a0803bcc:	27c30028 	addiu	v1,s8,40
a0803bd0:	8fc4001c 	lw	a0,28(s8)
a0803bd4:	00402821 	move	a1,v0
a0803bd8:	00603021 	move	a2,v1
a0803bdc:	0c200dbb 	jal	a08036ec <_puts>
a0803be0:	00000000 	nop
a0803be4:	08200f01 	j	a0803c04 <mini_vsnprintf+0x424>
a0803be8:	00000000 	nop
a0803bec:	83c20025 	lb	v0,37(s8)
a0803bf0:	27c30028 	addiu	v1,s8,40
a0803bf4:	00402021 	move	a0,v0
a0803bf8:	00602821 	move	a1,v1
a0803bfc:	0c200d92 	jal	a0803648 <_putc>
a0803c00:	00000000 	nop
a0803c04:	8fc20070 	lw	v0,112(s8)
a0803c08:	90420000 	lbu	v0,0(v0)
a0803c0c:	a3c20025 	sb	v0,37(s8)
a0803c10:	83c20025 	lb	v0,37(s8)
a0803c14:	0002102b 	sltu	v0,zero,v0
a0803c18:	304300ff 	andi	v1,v0,0xff
a0803c1c:	8fc20070 	lw	v0,112(s8)
a0803c20:	24420001 	addiu	v0,v0,1
a0803c24:	afc20070 	sw	v0,112(s8)
a0803c28:	1460fefd 	bnez	v1,a0803820 <mini_vsnprintf+0x40>
a0803c2c:	00000000 	nop
a0803c30:	8fc2002c 	lw	v0,44(s8)
a0803c34:	00401821 	move	v1,v0
a0803c38:	8fc20028 	lw	v0,40(s8)
a0803c3c:	00621023 	subu	v0,v1,v0
a0803c40:	03c0e821 	move	sp,s8
a0803c44:	8fbf0064 	lw	ra,100(sp)
a0803c48:	8fbe0060 	lw	s8,96(sp)
a0803c4c:	27bd0068 	addiu	sp,sp,104
a0803c50:	03e00008 	jr	ra
a0803c54:	00000000 	nop

a0803c58 <vprintk>:
a0803c58:	27bdfed8 	addiu	sp,sp,-296
a0803c5c:	afbf0124 	sw	ra,292(sp)
a0803c60:	afbe0120 	sw	s8,288(sp)
a0803c64:	03a0f021 	move	s8,sp
a0803c68:	afc40128 	sw	a0,296(s8)
a0803c6c:	afc5012c 	sw	a1,300(s8)
a0803c70:	8fc2012c 	lw	v0,300(s8)
a0803c74:	afc20018 	sw	v0,24(s8)
a0803c78:	8fc30018 	lw	v1,24(s8)
a0803c7c:	27c2001c 	addiu	v0,s8,28
a0803c80:	00402021 	move	a0,v0
a0803c84:	24050100 	li	a1,256
a0803c88:	8fc60128 	lw	a2,296(s8)
a0803c8c:	00603821 	move	a3,v1
a0803c90:	0c200df8 	jal	a08037e0 <mini_vsnprintf>
a0803c94:	00000000 	nop
a0803c98:	afc20014 	sw	v0,20(s8)
a0803c9c:	8fc30014 	lw	v1,20(s8)
a0803ca0:	27c20010 	addiu	v0,s8,16
a0803ca4:	00431021 	addu	v0,v0,v1
a0803ca8:	a040000c 	sb	zero,12(v0)
a0803cac:	0c200106 	jal	a0800418 <disable_preempt>
a0803cb0:	00000000 	nop
a0803cb4:	27c2001c 	addiu	v0,s8,28
a0803cb8:	00402021 	move	a0,v0
a0803cbc:	0c20029c 	jal	a0800a70 <port_write>
a0803cc0:	00000000 	nop
a0803cc4:	afc00010 	sw	zero,16(s8)
a0803cc8:	afc00010 	sw	zero,16(s8)
a0803ccc:	08200f58 	j	a0803d60 <vprintk+0x108>
a0803cd0:	00000000 	nop
a0803cd4:	8fc30010 	lw	v1,16(s8)
a0803cd8:	27c20010 	addiu	v0,s8,16
a0803cdc:	00431021 	addu	v0,v0,v1
a0803ce0:	8043000c 	lb	v1,12(v0)
a0803ce4:	2402000a 	li	v0,10
a0803ce8:	14620008 	bne	v1,v0,a0803d0c <vprintk+0xb4>
a0803cec:	00000000 	nop
a0803cf0:	3c02a080 	lui	v0,0xa080
a0803cf4:	8c436598 	lw	v1,26008(v0)
a0803cf8:	8c620164 	lw	v0,356(v1)
a0803cfc:	24420001 	addiu	v0,v0,1
a0803d00:	ac620164 	sw	v0,356(v1)
a0803d04:	08200f55 	j	a0803d54 <vprintk+0xfc>
a0803d08:	00000000 	nop
a0803d0c:	8fc30010 	lw	v1,16(s8)
a0803d10:	27c20010 	addiu	v0,s8,16
a0803d14:	00431021 	addu	v0,v0,v1
a0803d18:	8043000c 	lb	v1,12(v0)
a0803d1c:	2402000d 	li	v0,13
a0803d20:	14620007 	bne	v1,v0,a0803d40 <vprintk+0xe8>
a0803d24:	00000000 	nop
a0803d28:	3c02a080 	lui	v0,0xa080
a0803d2c:	8c436598 	lw	v1,26008(v0)
a0803d30:	24020001 	li	v0,1
a0803d34:	ac620160 	sw	v0,352(v1)
a0803d38:	08200f55 	j	a0803d54 <vprintk+0xfc>
a0803d3c:	00000000 	nop
a0803d40:	3c02a080 	lui	v0,0xa080
a0803d44:	8c436598 	lw	v1,26008(v0)
a0803d48:	8c620160 	lw	v0,352(v1)
a0803d4c:	24420001 	addiu	v0,v0,1
a0803d50:	ac620160 	sw	v0,352(v1)
a0803d54:	8fc20010 	lw	v0,16(s8)
a0803d58:	24420001 	addiu	v0,v0,1
a0803d5c:	afc20010 	sw	v0,16(s8)
a0803d60:	8fc20010 	lw	v0,16(s8)
a0803d64:	8fc30014 	lw	v1,20(s8)
a0803d68:	0043102a 	slt	v0,v0,v1
a0803d6c:	1440ffd9 	bnez	v0,a0803cd4 <vprintk+0x7c>
a0803d70:	00000000 	nop
a0803d74:	0c2000f2 	jal	a08003c8 <enable_preempt>
a0803d78:	00000000 	nop
a0803d7c:	8fc20014 	lw	v0,20(s8)
a0803d80:	03c0e821 	move	sp,s8
a0803d84:	8fbf0124 	lw	ra,292(sp)
a0803d88:	8fbe0120 	lw	s8,288(sp)
a0803d8c:	27bd0128 	addiu	sp,sp,296
a0803d90:	03e00008 	jr	ra
a0803d94:	00000000 	nop

a0803d98 <printk>:
a0803d98:	27bdffe0 	addiu	sp,sp,-32
a0803d9c:	afbf001c 	sw	ra,28(sp)
a0803da0:	afbe0018 	sw	s8,24(sp)
a0803da4:	03a0f021 	move	s8,sp
a0803da8:	afc50024 	sw	a1,36(s8)
a0803dac:	afc60028 	sw	a2,40(s8)
a0803db0:	afc7002c 	sw	a3,44(s8)
a0803db4:	afc40020 	sw	a0,32(s8)
a0803db8:	afc00010 	sw	zero,16(s8)
a0803dbc:	27c20024 	addiu	v0,s8,36
a0803dc0:	afc20014 	sw	v0,20(s8)
a0803dc4:	8fc20014 	lw	v0,20(s8)
a0803dc8:	8fc40020 	lw	a0,32(s8)
a0803dcc:	00402821 	move	a1,v0
a0803dd0:	0c200f16 	jal	a0803c58 <vprintk>
a0803dd4:	00000000 	nop
a0803dd8:	afc20010 	sw	v0,16(s8)
a0803ddc:	8fc20010 	lw	v0,16(s8)
a0803de0:	03c0e821 	move	sp,s8
a0803de4:	8fbf001c 	lw	ra,28(sp)
a0803de8:	8fbe0018 	lw	s8,24(sp)
a0803dec:	27bd0020 	addiu	sp,sp,32
a0803df0:	03e00008 	jr	ra
a0803df4:	00000000 	nop
	...

a0803e00 <mini_itoa>:
a0803e00:	27bdffc8 	addiu	sp,sp,-56
a0803e04:	afbe0034 	sw	s8,52(sp)
a0803e08:	03a0f021 	move	s8,sp
a0803e0c:	afc40038 	sw	a0,56(s8)
a0803e10:	afc5003c 	sw	a1,60(s8)
a0803e14:	afc60040 	sw	a2,64(s8)
a0803e18:	afc70044 	sw	a3,68(s8)
a0803e1c:	8fc20048 	lw	v0,72(s8)
a0803e20:	afc20014 	sw	v0,20(s8)
a0803e24:	afc00010 	sw	zero,16(s8)
a0803e28:	8fc2003c 	lw	v0,60(s8)
a0803e2c:	2c420011 	sltiu	v0,v0,17
a0803e30:	14400004 	bnez	v0,a0803e44 <mini_itoa+0x44>
a0803e34:	00000000 	nop
a0803e38:	afc00020 	sw	zero,32(s8)
a0803e3c:	0820101a 	j	a0804068 <mini_itoa+0x268>
a0803e40:	00000000 	nop
a0803e44:	8fc20038 	lw	v0,56(s8)
a0803e48:	04410009 	bgez	v0,a0803e70 <mini_itoa+0x70>
a0803e4c:	00000000 	nop
a0803e50:	8fc20044 	lw	v0,68(s8)
a0803e54:	14400006 	bnez	v0,a0803e70 <mini_itoa+0x70>
a0803e58:	00000000 	nop
a0803e5c:	24020001 	li	v0,1
a0803e60:	afc20010 	sw	v0,16(s8)
a0803e64:	8fc20038 	lw	v0,56(s8)
a0803e68:	00021023 	negu	v0,v0
a0803e6c:	afc20038 	sw	v0,56(s8)
a0803e70:	8fc30038 	lw	v1,56(s8)
a0803e74:	8fc2003c 	lw	v0,60(s8)
a0803e78:	0062001b 	divu	zero,v1,v0
a0803e7c:	004001f4 	teq	v0,zero,0x7
a0803e80:	00001010 	mfhi	v0
a0803e84:	afc20004 	sw	v0,4(s8)
a0803e88:	8fc20004 	lw	v0,4(s8)
a0803e8c:	2842000a 	slti	v0,v0,10
a0803e90:	1040000a 	beqz	v0,a0803ebc <mini_itoa+0xbc>
a0803e94:	00000000 	nop
a0803e98:	8fc20004 	lw	v0,4(s8)
a0803e9c:	304200ff 	andi	v0,v0,0xff
a0803ea0:	24420030 	addiu	v0,v0,48
a0803ea4:	304200ff 	andi	v0,v0,0xff
a0803ea8:	00021600 	sll	v0,v0,0x18
a0803eac:	00021603 	sra	v0,v0,0x18
a0803eb0:	afc2001c 	sw	v0,28(s8)
a0803eb4:	08200fc2 	j	a0803f08 <mini_itoa+0x108>
a0803eb8:	00000000 	nop
a0803ebc:	8fc20040 	lw	v0,64(s8)
a0803ec0:	10400005 	beqz	v0,a0803ed8 <mini_itoa+0xd8>
a0803ec4:	00000000 	nop
a0803ec8:	24020041 	li	v0,65
a0803ecc:	afc20018 	sw	v0,24(s8)
a0803ed0:	08200fb8 	j	a0803ee0 <mini_itoa+0xe0>
a0803ed4:	00000000 	nop
a0803ed8:	24030061 	li	v1,97
a0803edc:	afc30018 	sw	v1,24(s8)
a0803ee0:	8fc20004 	lw	v0,4(s8)
a0803ee4:	304200ff 	andi	v0,v0,0xff
a0803ee8:	8fc40018 	lw	a0,24(s8)
a0803eec:	00821021 	addu	v0,a0,v0
a0803ef0:	304200ff 	andi	v0,v0,0xff
a0803ef4:	2442fff6 	addiu	v0,v0,-10
a0803ef8:	304200ff 	andi	v0,v0,0xff
a0803efc:	00021600 	sll	v0,v0,0x18
a0803f00:	00021603 	sra	v0,v0,0x18
a0803f04:	afc2001c 	sw	v0,28(s8)
a0803f08:	8fc20014 	lw	v0,20(s8)
a0803f0c:	8fc3001c 	lw	v1,28(s8)
a0803f10:	a0430000 	sb	v1,0(v0)
a0803f14:	8fc20014 	lw	v0,20(s8)
a0803f18:	24420001 	addiu	v0,v0,1
a0803f1c:	afc20014 	sw	v0,20(s8)
a0803f20:	8fc30038 	lw	v1,56(s8)
a0803f24:	8fc2003c 	lw	v0,60(s8)
a0803f28:	0062001b 	divu	zero,v1,v0
a0803f2c:	004001f4 	teq	v0,zero,0x7
a0803f30:	00001012 	mflo	v0
a0803f34:	afc20038 	sw	v0,56(s8)
a0803f38:	8fc20038 	lw	v0,56(s8)
a0803f3c:	1c40ffcc 	bgtz	v0,a0803e70 <mini_itoa+0x70>
a0803f40:	00000000 	nop
a0803f44:	8fc20014 	lw	v0,20(s8)
a0803f48:	8fc30048 	lw	v1,72(s8)
a0803f4c:	00431023 	subu	v0,v0,v1
a0803f50:	afc2000c 	sw	v0,12(s8)
a0803f54:	08200fe0 	j	a0803f80 <mini_itoa+0x180>
a0803f58:	00000000 	nop
a0803f5c:	8fc30014 	lw	v1,20(s8)
a0803f60:	24020030 	li	v0,48
a0803f64:	a0620000 	sb	v0,0(v1)
a0803f68:	8fc20014 	lw	v0,20(s8)
a0803f6c:	24420001 	addiu	v0,v0,1
a0803f70:	afc20014 	sw	v0,20(s8)
a0803f74:	8fc2000c 	lw	v0,12(s8)
a0803f78:	24420001 	addiu	v0,v0,1
a0803f7c:	afc2000c 	sw	v0,12(s8)
a0803f80:	8fc2000c 	lw	v0,12(s8)
a0803f84:	8fc3004c 	lw	v1,76(s8)
a0803f88:	0043102b 	sltu	v0,v0,v1
a0803f8c:	1440fff3 	bnez	v0,a0803f5c <mini_itoa+0x15c>
a0803f90:	00000000 	nop
a0803f94:	8fc20010 	lw	v0,16(s8)
a0803f98:	10400007 	beqz	v0,a0803fb8 <mini_itoa+0x1b8>
a0803f9c:	00000000 	nop
a0803fa0:	8fc30014 	lw	v1,20(s8)
a0803fa4:	2402002d 	li	v0,45
a0803fa8:	a0620000 	sb	v0,0(v1)
a0803fac:	8fc20014 	lw	v0,20(s8)
a0803fb0:	24420001 	addiu	v0,v0,1
a0803fb4:	afc20014 	sw	v0,20(s8)
a0803fb8:	8fc20014 	lw	v0,20(s8)
a0803fbc:	a0400000 	sb	zero,0(v0)
a0803fc0:	8fc30014 	lw	v1,20(s8)
a0803fc4:	8fc20048 	lw	v0,72(s8)
a0803fc8:	00621023 	subu	v0,v1,v0
a0803fcc:	afc20008 	sw	v0,8(s8)
a0803fd0:	afc0000c 	sw	zero,12(s8)
a0803fd4:	08201012 	j	a0804048 <mini_itoa+0x248>
a0803fd8:	00000000 	nop
a0803fdc:	8fc30048 	lw	v1,72(s8)
a0803fe0:	8fc2000c 	lw	v0,12(s8)
a0803fe4:	00621021 	addu	v0,v1,v0
a0803fe8:	90420000 	lbu	v0,0(v0)
a0803fec:	a3c20000 	sb	v0,0(s8)
a0803ff0:	8fc30048 	lw	v1,72(s8)
a0803ff4:	8fc2000c 	lw	v0,12(s8)
a0803ff8:	00622021 	addu	a0,v1,v0
a0803ffc:	8fc30008 	lw	v1,8(s8)
a0804000:	8fc2000c 	lw	v0,12(s8)
a0804004:	00621023 	subu	v0,v1,v0
a0804008:	2443ffff 	addiu	v1,v0,-1
a080400c:	8fc20048 	lw	v0,72(s8)
a0804010:	00431021 	addu	v0,v0,v1
a0804014:	80420000 	lb	v0,0(v0)
a0804018:	a0820000 	sb	v0,0(a0)
a080401c:	8fc30008 	lw	v1,8(s8)
a0804020:	8fc2000c 	lw	v0,12(s8)
a0804024:	00621023 	subu	v0,v1,v0
a0804028:	2443ffff 	addiu	v1,v0,-1
a080402c:	8fc20048 	lw	v0,72(s8)
a0804030:	00431821 	addu	v1,v0,v1
a0804034:	93c20000 	lbu	v0,0(s8)
a0804038:	a0620000 	sb	v0,0(v1)
a080403c:	8fc2000c 	lw	v0,12(s8)
a0804040:	24420001 	addiu	v0,v0,1
a0804044:	afc2000c 	sw	v0,12(s8)
a0804048:	8fc20008 	lw	v0,8(s8)
a080404c:	00021842 	srl	v1,v0,0x1
a0804050:	8fc2000c 	lw	v0,12(s8)
a0804054:	0043102b 	sltu	v0,v0,v1
a0804058:	1440ffe0 	bnez	v0,a0803fdc <mini_itoa+0x1dc>
a080405c:	00000000 	nop
a0804060:	8fc20008 	lw	v0,8(s8)
a0804064:	afc20020 	sw	v0,32(s8)
a0804068:	8fc20020 	lw	v0,32(s8)
a080406c:	03c0e821 	move	sp,s8
a0804070:	8fbe0034 	lw	s8,52(sp)
a0804074:	27bd0038 	addiu	sp,sp,56
a0804078:	03e00008 	jr	ra
a080407c:	00000000 	nop

a0804080 <_putc>:
a0804080:	27bdfff0 	addiu	sp,sp,-16
a0804084:	afbe000c 	sw	s8,12(sp)
a0804088:	03a0f021 	move	s8,sp
a080408c:	afc40010 	sw	a0,16(s8)
a0804090:	afc50014 	sw	a1,20(s8)
a0804094:	8fc20014 	lw	v0,20(s8)
a0804098:	8c420004 	lw	v0,4(v0)
a080409c:	00401821 	move	v1,v0
a08040a0:	8fc20014 	lw	v0,20(s8)
a08040a4:	8c420000 	lw	v0,0(v0)
a08040a8:	00621023 	subu	v0,v1,v0
a08040ac:	24420001 	addiu	v0,v0,1
a08040b0:	00401821 	move	v1,v0
a08040b4:	8fc20014 	lw	v0,20(s8)
a08040b8:	8c420008 	lw	v0,8(v0)
a08040bc:	0062102b 	sltu	v0,v1,v0
a08040c0:	14400004 	bnez	v0,a08040d4 <_putc+0x54>
a08040c4:	00000000 	nop
a08040c8:	afc00000 	sw	zero,0(s8)
a08040cc:	08201043 	j	a080410c <_putc+0x8c>
a08040d0:	00000000 	nop
a08040d4:	8fc20014 	lw	v0,20(s8)
a08040d8:	8c430004 	lw	v1,4(v0)
a08040dc:	8fc20010 	lw	v0,16(s8)
a08040e0:	00021600 	sll	v0,v0,0x18
a08040e4:	00021603 	sra	v0,v0,0x18
a08040e8:	a0620000 	sb	v0,0(v1)
a08040ec:	24630001 	addiu	v1,v1,1
a08040f0:	8fc20014 	lw	v0,20(s8)
a08040f4:	ac430004 	sw	v1,4(v0)
a08040f8:	8fc20014 	lw	v0,20(s8)
a08040fc:	8c420004 	lw	v0,4(v0)
a0804100:	a0400000 	sb	zero,0(v0)
a0804104:	24020001 	li	v0,1
a0804108:	afc20000 	sw	v0,0(s8)
a080410c:	8fc20000 	lw	v0,0(s8)
a0804110:	03c0e821 	move	sp,s8
a0804114:	8fbe000c 	lw	s8,12(sp)
a0804118:	27bd0010 	addiu	sp,sp,16
a080411c:	03e00008 	jr	ra
a0804120:	00000000 	nop

a0804124 <_puts>:
a0804124:	27bdfff0 	addiu	sp,sp,-16
a0804128:	afbe000c 	sw	s8,12(sp)
a080412c:	03a0f021 	move	s8,sp
a0804130:	afc40010 	sw	a0,16(s8)
a0804134:	afc50014 	sw	a1,20(s8)
a0804138:	afc60018 	sw	a2,24(s8)
a080413c:	8fc20018 	lw	v0,24(s8)
a0804140:	8c440008 	lw	a0,8(v0)
a0804144:	8fc20018 	lw	v0,24(s8)
a0804148:	8c420000 	lw	v0,0(v0)
a080414c:	00401821 	move	v1,v0
a0804150:	8fc20018 	lw	v0,24(s8)
a0804154:	8c420004 	lw	v0,4(v0)
a0804158:	00621023 	subu	v0,v1,v0
a080415c:	00821021 	addu	v0,a0,v0
a0804160:	2443ffff 	addiu	v1,v0,-1
a0804164:	8fc20014 	lw	v0,20(s8)
a0804168:	0062102b 	sltu	v0,v1,v0
a080416c:	1040000c 	beqz	v0,a08041a0 <_puts+0x7c>
a0804170:	00000000 	nop
a0804174:	8fc20018 	lw	v0,24(s8)
a0804178:	8c440008 	lw	a0,8(v0)
a080417c:	8fc20018 	lw	v0,24(s8)
a0804180:	8c420000 	lw	v0,0(v0)
a0804184:	00401821 	move	v1,v0
a0804188:	8fc20018 	lw	v0,24(s8)
a080418c:	8c420004 	lw	v0,4(v0)
a0804190:	00621023 	subu	v0,v1,v0
a0804194:	00821021 	addu	v0,a0,v0
a0804198:	2442ffff 	addiu	v0,v0,-1
a080419c:	afc20014 	sw	v0,20(s8)
a08041a0:	afc00000 	sw	zero,0(s8)
a08041a4:	08201078 	j	a08041e0 <_puts+0xbc>
a08041a8:	00000000 	nop
a08041ac:	8fc20018 	lw	v0,24(s8)
a08041b0:	8c440004 	lw	a0,4(v0)
a08041b4:	8fc30010 	lw	v1,16(s8)
a08041b8:	8fc20000 	lw	v0,0(s8)
a08041bc:	00621021 	addu	v0,v1,v0
a08041c0:	80420000 	lb	v0,0(v0)
a08041c4:	a0820000 	sb	v0,0(a0)
a08041c8:	24830001 	addiu	v1,a0,1
a08041cc:	8fc20018 	lw	v0,24(s8)
a08041d0:	ac430004 	sw	v1,4(v0)
a08041d4:	8fc20000 	lw	v0,0(s8)
a08041d8:	24420001 	addiu	v0,v0,1
a08041dc:	afc20000 	sw	v0,0(s8)
a08041e0:	8fc20000 	lw	v0,0(s8)
a08041e4:	8fc30014 	lw	v1,20(s8)
a08041e8:	0043102b 	sltu	v0,v0,v1
a08041ec:	1440ffef 	bnez	v0,a08041ac <_puts+0x88>
a08041f0:	00000000 	nop
a08041f4:	8fc20018 	lw	v0,24(s8)
a08041f8:	8c420004 	lw	v0,4(v0)
a08041fc:	a0400000 	sb	zero,0(v0)
a0804200:	8fc20014 	lw	v0,20(s8)
a0804204:	03c0e821 	move	sp,s8
a0804208:	8fbe000c 	lw	s8,12(sp)
a080420c:	27bd0010 	addiu	sp,sp,16
a0804210:	03e00008 	jr	ra
a0804214:	00000000 	nop

a0804218 <mini_vsnprintf>:
a0804218:	27bdff98 	addiu	sp,sp,-104
a080421c:	afbf0064 	sw	ra,100(sp)
a0804220:	afbe0060 	sw	s8,96(sp)
a0804224:	03a0f021 	move	s8,sp
a0804228:	afc40068 	sw	a0,104(s8)
a080422c:	afc5006c 	sw	a1,108(s8)
a0804230:	afc60070 	sw	a2,112(s8)
a0804234:	afc70074 	sw	a3,116(s8)
a0804238:	8fc20068 	lw	v0,104(s8)
a080423c:	afc20028 	sw	v0,40(s8)
a0804240:	8fc20068 	lw	v0,104(s8)
a0804244:	afc2002c 	sw	v0,44(s8)
a0804248:	8fc2006c 	lw	v0,108(s8)
a080424c:	afc20030 	sw	v0,48(s8)
a0804250:	0820118f 	j	a080463c <mini_vsnprintf+0x424>
a0804254:	00000000 	nop
a0804258:	8fc2002c 	lw	v0,44(s8)
a080425c:	00401821 	move	v1,v0
a0804260:	8fc20028 	lw	v0,40(s8)
a0804264:	00621023 	subu	v0,v1,v0
a0804268:	24420001 	addiu	v0,v0,1
a080426c:	00401821 	move	v1,v0
a0804270:	8fc20030 	lw	v0,48(s8)
a0804274:	0062102b 	sltu	v0,v1,v0
a0804278:	104000fb 	beqz	v0,a0804668 <mini_vsnprintf+0x450>
a080427c:	00000000 	nop
a0804280:	83c30025 	lb	v1,37(s8)
a0804284:	24020025 	li	v0,37
a0804288:	10620009 	beq	v1,v0,a08042b0 <mini_vsnprintf+0x98>
a080428c:	00000000 	nop
a0804290:	83c20025 	lb	v0,37(s8)
a0804294:	27c30028 	addiu	v1,s8,40
a0804298:	00402021 	move	a0,v0
a080429c:	00602821 	move	a1,v1
a08042a0:	0c201020 	jal	a0804080 <_putc>
a08042a4:	00000000 	nop
a08042a8:	0820118f 	j	a080463c <mini_vsnprintf+0x424>
a08042ac:	00000000 	nop
a08042b0:	a3c00024 	sb	zero,36(s8)
a08042b4:	afc00020 	sw	zero,32(s8)
a08042b8:	8fc20070 	lw	v0,112(s8)
a08042bc:	90420000 	lbu	v0,0(v0)
a08042c0:	a3c20025 	sb	v0,37(s8)
a08042c4:	8fc20070 	lw	v0,112(s8)
a08042c8:	24420001 	addiu	v0,v0,1
a08042cc:	afc20070 	sw	v0,112(s8)
a08042d0:	83c30025 	lb	v1,37(s8)
a08042d4:	24020030 	li	v0,48
a08042d8:	14620024 	bne	v1,v0,a080436c <mini_vsnprintf+0x154>
a08042dc:	00000000 	nop
a08042e0:	082010d0 	j	a0804340 <mini_vsnprintf+0x128>
a08042e4:	00000000 	nop
a08042e8:	83c20025 	lb	v0,37(s8)
a08042ec:	104000de 	beqz	v0,a0804668 <mini_vsnprintf+0x450>
a08042f0:	00000000 	nop
a08042f4:	83c20025 	lb	v0,37(s8)
a08042f8:	28420030 	slti	v0,v0,48
a08042fc:	1440001b 	bnez	v0,a080436c <mini_vsnprintf+0x154>
a0804300:	00000000 	nop
a0804304:	83c20025 	lb	v0,37(s8)
a0804308:	2842003a 	slti	v0,v0,58
a080430c:	10400017 	beqz	v0,a080436c <mini_vsnprintf+0x154>
a0804310:	00000000 	nop
a0804314:	83c20024 	lb	v0,36(s8)
a0804318:	00021840 	sll	v1,v0,0x1
a080431c:	00031080 	sll	v0,v1,0x2
a0804320:	00621021 	addu	v0,v1,v0
a0804324:	304300ff 	andi	v1,v0,0xff
a0804328:	93c20025 	lbu	v0,37(s8)
a080432c:	00621021 	addu	v0,v1,v0
a0804330:	304200ff 	andi	v0,v0,0xff
a0804334:	2442ffd0 	addiu	v0,v0,-48
a0804338:	304200ff 	andi	v0,v0,0xff
a080433c:	a3c20024 	sb	v0,36(s8)
a0804340:	8fc20070 	lw	v0,112(s8)
a0804344:	90420000 	lbu	v0,0(v0)
a0804348:	a3c20025 	sb	v0,37(s8)
a080434c:	83c20025 	lb	v0,37(s8)
a0804350:	0002102b 	sltu	v0,zero,v0
a0804354:	304300ff 	andi	v1,v0,0xff
a0804358:	8fc20070 	lw	v0,112(s8)
a080435c:	24420001 	addiu	v0,v0,1
a0804360:	afc20070 	sw	v0,112(s8)
a0804364:	1460ffe0 	bnez	v1,a08042e8 <mini_vsnprintf+0xd0>
a0804368:	00000000 	nop
a080436c:	83c30025 	lb	v1,37(s8)
a0804370:	2402006c 	li	v0,108
a0804374:	14620009 	bne	v1,v0,a080439c <mini_vsnprintf+0x184>
a0804378:	00000000 	nop
a080437c:	24020001 	li	v0,1
a0804380:	afc20020 	sw	v0,32(s8)
a0804384:	8fc20070 	lw	v0,112(s8)
a0804388:	90420000 	lbu	v0,0(v0)
a080438c:	a3c20025 	sb	v0,37(s8)
a0804390:	8fc20070 	lw	v0,112(s8)
a0804394:	24420001 	addiu	v0,v0,1
a0804398:	afc20070 	sw	v0,112(s8)
a080439c:	83c20025 	lb	v0,37(s8)
a08043a0:	afc20058 	sw	v0,88(s8)
a08043a4:	2402006c 	li	v0,108
a08043a8:	8fc30058 	lw	v1,88(s8)
a08043ac:	1062002a 	beq	v1,v0,a0804458 <mini_vsnprintf+0x240>
a08043b0:	00000000 	nop
a08043b4:	8fc30058 	lw	v1,88(s8)
a08043b8:	2862006d 	slti	v0,v1,109
a08043bc:	10400018 	beqz	v0,a0804420 <mini_vsnprintf+0x208>
a08043c0:	00000000 	nop
a08043c4:	24020063 	li	v0,99
a08043c8:	8fc30058 	lw	v1,88(s8)
a08043cc:	10620076 	beq	v1,v0,a08045a8 <mini_vsnprintf+0x390>
a08043d0:	00000000 	nop
a08043d4:	8fc30058 	lw	v1,88(s8)
a08043d8:	28620064 	slti	v0,v1,100
a08043dc:	1040000a 	beqz	v0,a0804408 <mini_vsnprintf+0x1f0>
a08043e0:	00000000 	nop
a08043e4:	8fc20058 	lw	v0,88(s8)
a08043e8:	1040009f 	beqz	v0,a0804668 <mini_vsnprintf+0x450>
a08043ec:	00000000 	nop
a08043f0:	24020058 	li	v0,88
a08043f4:	8fc30058 	lw	v1,88(s8)
a08043f8:	10620043 	beq	v1,v0,a0804508 <mini_vsnprintf+0x2f0>
a08043fc:	00000000 	nop
a0804400:	08201189 	j	a0804624 <mini_vsnprintf+0x40c>
a0804404:	00000000 	nop
a0804408:	24020064 	li	v0,100
a080440c:	8fc30058 	lw	v1,88(s8)
a0804410:	10620015 	beq	v1,v0,a0804468 <mini_vsnprintf+0x250>
a0804414:	00000000 	nop
a0804418:	08201189 	j	a0804624 <mini_vsnprintf+0x40c>
a080441c:	00000000 	nop
a0804420:	24020075 	li	v0,117
a0804424:	8fc30058 	lw	v1,88(s8)
a0804428:	1062000f 	beq	v1,v0,a0804468 <mini_vsnprintf+0x250>
a080442c:	00000000 	nop
a0804430:	24020078 	li	v0,120
a0804434:	8fc30058 	lw	v1,88(s8)
a0804438:	10620033 	beq	v1,v0,a0804508 <mini_vsnprintf+0x2f0>
a080443c:	00000000 	nop
a0804440:	24020073 	li	v0,115
a0804444:	8fc30058 	lw	v1,88(s8)
a0804448:	10620065 	beq	v1,v0,a08045e0 <mini_vsnprintf+0x3c8>
a080444c:	00000000 	nop
a0804450:	08201189 	j	a0804624 <mini_vsnprintf+0x40c>
a0804454:	00000000 	nop
a0804458:	24020001 	li	v0,1
a080445c:	afc20020 	sw	v0,32(s8)
a0804460:	0820118f 	j	a080463c <mini_vsnprintf+0x424>
a0804464:	00000000 	nop
a0804468:	8fc20020 	lw	v0,32(s8)
a080446c:	14400009 	bnez	v0,a0804494 <mini_vsnprintf+0x27c>
a0804470:	00000000 	nop
a0804474:	8fc30074 	lw	v1,116(s8)
a0804478:	24620004 	addiu	v0,v1,4
a080447c:	afc20074 	sw	v0,116(s8)
a0804480:	00601021 	move	v0,v1
a0804484:	8c420000 	lw	v0,0(v0)
a0804488:	afc20054 	sw	v0,84(s8)
a080448c:	0820112b 	j	a08044ac <mini_vsnprintf+0x294>
a0804490:	00000000 	nop
a0804494:	8fc30074 	lw	v1,116(s8)
a0804498:	24620004 	addiu	v0,v1,4
a080449c:	afc20074 	sw	v0,116(s8)
a08044a0:	00601021 	move	v0,v1
a08044a4:	8c420000 	lw	v0,0(v0)
a08044a8:	afc20054 	sw	v0,84(s8)
a08044ac:	83c20025 	lb	v0,37(s8)
a08044b0:	38420075 	xori	v0,v0,0x75
a08044b4:	2c470001 	sltiu	a3,v0,1
a08044b8:	83c30024 	lb	v1,36(s8)
a08044bc:	27c20034 	addiu	v0,s8,52
a08044c0:	afa20010 	sw	v0,16(sp)
a08044c4:	afa30014 	sw	v1,20(sp)
a08044c8:	8fc40054 	lw	a0,84(s8)
a08044cc:	2405000a 	li	a1,10
a08044d0:	00003021 	move	a2,zero
a08044d4:	0c200f80 	jal	a0803e00 <mini_itoa>
a08044d8:	00000000 	nop
a08044dc:	afc20018 	sw	v0,24(s8)
a08044e0:	27c20034 	addiu	v0,s8,52
a08044e4:	27c30028 	addiu	v1,s8,40
a08044e8:	00402021 	move	a0,v0
a08044ec:	8fc50018 	lw	a1,24(s8)
a08044f0:	00603021 	move	a2,v1
a08044f4:	0c201049 	jal	a0804124 <_puts>
a08044f8:	00000000 	nop
a08044fc:	afc00020 	sw	zero,32(s8)
a0804500:	0820118f 	j	a080463c <mini_vsnprintf+0x424>
a0804504:	00000000 	nop
a0804508:	8fc20020 	lw	v0,32(s8)
a080450c:	14400009 	bnez	v0,a0804534 <mini_vsnprintf+0x31c>
a0804510:	00000000 	nop
a0804514:	8fc30074 	lw	v1,116(s8)
a0804518:	24620004 	addiu	v0,v1,4
a080451c:	afc20074 	sw	v0,116(s8)
a0804520:	00601021 	move	v0,v1
a0804524:	8c420000 	lw	v0,0(v0)
a0804528:	afc20050 	sw	v0,80(s8)
a080452c:	08201153 	j	a080454c <mini_vsnprintf+0x334>
a0804530:	00000000 	nop
a0804534:	8fc30074 	lw	v1,116(s8)
a0804538:	24620004 	addiu	v0,v1,4
a080453c:	afc20074 	sw	v0,116(s8)
a0804540:	00601021 	move	v0,v1
a0804544:	8c420000 	lw	v0,0(v0)
a0804548:	afc20050 	sw	v0,80(s8)
a080454c:	83c20025 	lb	v0,37(s8)
a0804550:	38420058 	xori	v0,v0,0x58
a0804554:	2c460001 	sltiu	a2,v0,1
a0804558:	83c30024 	lb	v1,36(s8)
a080455c:	27c20034 	addiu	v0,s8,52
a0804560:	afa20010 	sw	v0,16(sp)
a0804564:	afa30014 	sw	v1,20(sp)
a0804568:	8fc40050 	lw	a0,80(s8)
a080456c:	24050010 	li	a1,16
a0804570:	24070001 	li	a3,1
a0804574:	0c200f80 	jal	a0803e00 <mini_itoa>
a0804578:	00000000 	nop
a080457c:	afc20018 	sw	v0,24(s8)
a0804580:	27c20034 	addiu	v0,s8,52
a0804584:	27c30028 	addiu	v1,s8,40
a0804588:	00402021 	move	a0,v0
a080458c:	8fc50018 	lw	a1,24(s8)
a0804590:	00603021 	move	a2,v1
a0804594:	0c201049 	jal	a0804124 <_puts>
a0804598:	00000000 	nop
a080459c:	afc00020 	sw	zero,32(s8)
a08045a0:	0820118f 	j	a080463c <mini_vsnprintf+0x424>
a08045a4:	00000000 	nop
a08045a8:	8fc30074 	lw	v1,116(s8)
a08045ac:	24620004 	addiu	v0,v1,4
a08045b0:	afc20074 	sw	v0,116(s8)
a08045b4:	00601021 	move	v0,v1
a08045b8:	8c420000 	lw	v0,0(v0)
a08045bc:	00021600 	sll	v0,v0,0x18
a08045c0:	00021603 	sra	v0,v0,0x18
a08045c4:	27c30028 	addiu	v1,s8,40
a08045c8:	00402021 	move	a0,v0
a08045cc:	00602821 	move	a1,v1
a08045d0:	0c201020 	jal	a0804080 <_putc>
a08045d4:	00000000 	nop
a08045d8:	0820118f 	j	a080463c <mini_vsnprintf+0x424>
a08045dc:	00000000 	nop
a08045e0:	8fc30074 	lw	v1,116(s8)
a08045e4:	24620004 	addiu	v0,v1,4
a08045e8:	afc20074 	sw	v0,116(s8)
a08045ec:	00601021 	move	v0,v1
a08045f0:	8c420000 	lw	v0,0(v0)
a08045f4:	afc2001c 	sw	v0,28(s8)
a08045f8:	8fc4001c 	lw	a0,28(s8)
a08045fc:	0c2011dc 	jal	a0804770 <strlen>
a0804600:	00000000 	nop
a0804604:	27c30028 	addiu	v1,s8,40
a0804608:	8fc4001c 	lw	a0,28(s8)
a080460c:	00402821 	move	a1,v0
a0804610:	00603021 	move	a2,v1
a0804614:	0c201049 	jal	a0804124 <_puts>
a0804618:	00000000 	nop
a080461c:	0820118f 	j	a080463c <mini_vsnprintf+0x424>
a0804620:	00000000 	nop
a0804624:	83c20025 	lb	v0,37(s8)
a0804628:	27c30028 	addiu	v1,s8,40
a080462c:	00402021 	move	a0,v0
a0804630:	00602821 	move	a1,v1
a0804634:	0c201020 	jal	a0804080 <_putc>
a0804638:	00000000 	nop
a080463c:	8fc20070 	lw	v0,112(s8)
a0804640:	90420000 	lbu	v0,0(v0)
a0804644:	a3c20025 	sb	v0,37(s8)
a0804648:	83c20025 	lb	v0,37(s8)
a080464c:	0002102b 	sltu	v0,zero,v0
a0804650:	304300ff 	andi	v1,v0,0xff
a0804654:	8fc20070 	lw	v0,112(s8)
a0804658:	24420001 	addiu	v0,v0,1
a080465c:	afc20070 	sw	v0,112(s8)
a0804660:	1460fefd 	bnez	v1,a0804258 <mini_vsnprintf+0x40>
a0804664:	00000000 	nop
a0804668:	8fc2002c 	lw	v0,44(s8)
a080466c:	00401821 	move	v1,v0
a0804670:	8fc20028 	lw	v0,40(s8)
a0804674:	00621023 	subu	v0,v1,v0
a0804678:	03c0e821 	move	sp,s8
a080467c:	8fbf0064 	lw	ra,100(sp)
a0804680:	8fbe0060 	lw	s8,96(sp)
a0804684:	27bd0068 	addiu	sp,sp,104
a0804688:	03e00008 	jr	ra
a080468c:	00000000 	nop

a0804690 <vprintf>:
a0804690:	27bdfee0 	addiu	sp,sp,-288
a0804694:	afbf011c 	sw	ra,284(sp)
a0804698:	afbe0118 	sw	s8,280(sp)
a080469c:	03a0f021 	move	s8,sp
a08046a0:	afc40120 	sw	a0,288(s8)
a08046a4:	afc50124 	sw	a1,292(s8)
a08046a8:	8fc20124 	lw	v0,292(s8)
a08046ac:	afc20014 	sw	v0,20(s8)
a08046b0:	8fc30014 	lw	v1,20(s8)
a08046b4:	27c20018 	addiu	v0,s8,24
a08046b8:	00402021 	move	a0,v0
a08046bc:	24050100 	li	a1,256
a08046c0:	8fc60120 	lw	a2,288(s8)
a08046c4:	00603821 	move	a3,v1
a08046c8:	0c201086 	jal	a0804218 <mini_vsnprintf>
a08046cc:	00000000 	nop
a08046d0:	afc20010 	sw	v0,16(s8)
a08046d4:	8fc30010 	lw	v1,16(s8)
a08046d8:	27c20010 	addiu	v0,s8,16
a08046dc:	00431021 	addu	v0,v0,v1
a08046e0:	a0400008 	sb	zero,8(v0)
a08046e4:	27c20018 	addiu	v0,s8,24
a08046e8:	00402021 	move	a0,v0
a08046ec:	0c2013ba 	jal	a0804ee8 <sys_write>
a08046f0:	00000000 	nop
a08046f4:	8fc20010 	lw	v0,16(s8)
a08046f8:	03c0e821 	move	sp,s8
a08046fc:	8fbf011c 	lw	ra,284(sp)
a0804700:	8fbe0118 	lw	s8,280(sp)
a0804704:	27bd0120 	addiu	sp,sp,288
a0804708:	03e00008 	jr	ra
a080470c:	00000000 	nop

a0804710 <printf>:
a0804710:	27bdffe0 	addiu	sp,sp,-32
a0804714:	afbf001c 	sw	ra,28(sp)
a0804718:	afbe0018 	sw	s8,24(sp)
a080471c:	03a0f021 	move	s8,sp
a0804720:	afc50024 	sw	a1,36(s8)
a0804724:	afc60028 	sw	a2,40(s8)
a0804728:	afc7002c 	sw	a3,44(s8)
a080472c:	afc40020 	sw	a0,32(s8)
a0804730:	afc00010 	sw	zero,16(s8)
a0804734:	27c20024 	addiu	v0,s8,36
a0804738:	afc20014 	sw	v0,20(s8)
a080473c:	8fc20014 	lw	v0,20(s8)
a0804740:	8fc40020 	lw	a0,32(s8)
a0804744:	00402821 	move	a1,v0
a0804748:	0c2011a4 	jal	a0804690 <vprintf>
a080474c:	00000000 	nop
a0804750:	afc20010 	sw	v0,16(s8)
a0804754:	8fc20010 	lw	v0,16(s8)
a0804758:	03c0e821 	move	sp,s8
a080475c:	8fbf001c 	lw	ra,28(sp)
a0804760:	8fbe0018 	lw	s8,24(sp)
a0804764:	27bd0020 	addiu	sp,sp,32
a0804768:	03e00008 	jr	ra
a080476c:	00000000 	nop

a0804770 <strlen>:
a0804770:	27bdfff0 	addiu	sp,sp,-16
a0804774:	afbe000c 	sw	s8,12(sp)
a0804778:	03a0f021 	move	s8,sp
a080477c:	afc40010 	sw	a0,16(s8)
a0804780:	afc00000 	sw	zero,0(s8)
a0804784:	082011e6 	j	a0804798 <strlen+0x28>
a0804788:	00000000 	nop
a080478c:	8fc20000 	lw	v0,0(s8)
a0804790:	24420001 	addiu	v0,v0,1
a0804794:	afc20000 	sw	v0,0(s8)
a0804798:	8fc30000 	lw	v1,0(s8)
a080479c:	8fc20010 	lw	v0,16(s8)
a08047a0:	00431021 	addu	v0,v0,v1
a08047a4:	80420000 	lb	v0,0(v0)
a08047a8:	1440fff8 	bnez	v0,a080478c <strlen+0x1c>
a08047ac:	00000000 	nop
a08047b0:	8fc20000 	lw	v0,0(s8)
a08047b4:	03c0e821 	move	sp,s8
a08047b8:	8fbe000c 	lw	s8,12(sp)
a08047bc:	27bd0010 	addiu	sp,sp,16
a08047c0:	03e00008 	jr	ra
a08047c4:	00000000 	nop

a08047c8 <memcpy>:
a08047c8:	27bdfff8 	addiu	sp,sp,-8
a08047cc:	afbe0004 	sw	s8,4(sp)
a08047d0:	03a0f021 	move	s8,sp
a08047d4:	afc40008 	sw	a0,8(s8)
a08047d8:	afc5000c 	sw	a1,12(s8)
a08047dc:	afc60010 	sw	a2,16(s8)
a08047e0:	08201207 	j	a080481c <memcpy+0x54>
a08047e4:	00000000 	nop
a08047e8:	8fc2000c 	lw	v0,12(s8)
a08047ec:	90430000 	lbu	v1,0(v0)
a08047f0:	8fc20008 	lw	v0,8(s8)
a08047f4:	a0430000 	sb	v1,0(v0)
a08047f8:	8fc20008 	lw	v0,8(s8)
a08047fc:	24420001 	addiu	v0,v0,1
a0804800:	afc20008 	sw	v0,8(s8)
a0804804:	8fc2000c 	lw	v0,12(s8)
a0804808:	24420001 	addiu	v0,v0,1
a080480c:	afc2000c 	sw	v0,12(s8)
a0804810:	8fc20010 	lw	v0,16(s8)
a0804814:	2442ffff 	addiu	v0,v0,-1
a0804818:	afc20010 	sw	v0,16(s8)
a080481c:	8fc20010 	lw	v0,16(s8)
a0804820:	1440fff1 	bnez	v0,a08047e8 <memcpy+0x20>
a0804824:	00000000 	nop
a0804828:	03c0e821 	move	sp,s8
a080482c:	8fbe0004 	lw	s8,4(sp)
a0804830:	27bd0008 	addiu	sp,sp,8
a0804834:	03e00008 	jr	ra
a0804838:	00000000 	nop

a080483c <memset>:
a080483c:	27bdfff0 	addiu	sp,sp,-16
a0804840:	afbe000c 	sw	s8,12(sp)
a0804844:	03a0f021 	move	s8,sp
a0804848:	afc40010 	sw	a0,16(s8)
a080484c:	00a01021 	move	v0,a1
a0804850:	afc60018 	sw	a2,24(s8)
a0804854:	a3c20014 	sb	v0,20(s8)
a0804858:	8fc20010 	lw	v0,16(s8)
a080485c:	afc20000 	sw	v0,0(s8)
a0804860:	08201223 	j	a080488c <memset+0x50>
a0804864:	00000000 	nop
a0804868:	8fc30000 	lw	v1,0(s8)
a080486c:	93c20014 	lbu	v0,20(s8)
a0804870:	a0620000 	sb	v0,0(v1)
a0804874:	8fc20000 	lw	v0,0(s8)
a0804878:	24420001 	addiu	v0,v0,1
a080487c:	afc20000 	sw	v0,0(s8)
a0804880:	8fc20018 	lw	v0,24(s8)
a0804884:	2442ffff 	addiu	v0,v0,-1
a0804888:	afc20018 	sw	v0,24(s8)
a080488c:	8fc20018 	lw	v0,24(s8)
a0804890:	1440fff5 	bnez	v0,a0804868 <memset+0x2c>
a0804894:	00000000 	nop
a0804898:	03c0e821 	move	sp,s8
a080489c:	8fbe000c 	lw	s8,12(sp)
a08048a0:	27bd0010 	addiu	sp,sp,16
a08048a4:	03e00008 	jr	ra
a08048a8:	00000000 	nop

a08048ac <bzero>:
a08048ac:	27bdffe8 	addiu	sp,sp,-24
a08048b0:	afbf0014 	sw	ra,20(sp)
a08048b4:	afbe0010 	sw	s8,16(sp)
a08048b8:	03a0f021 	move	s8,sp
a08048bc:	afc40018 	sw	a0,24(s8)
a08048c0:	afc5001c 	sw	a1,28(s8)
a08048c4:	8fc40018 	lw	a0,24(s8)
a08048c8:	00002821 	move	a1,zero
a08048cc:	8fc6001c 	lw	a2,28(s8)
a08048d0:	0c20120f 	jal	a080483c <memset>
a08048d4:	00000000 	nop
a08048d8:	03c0e821 	move	sp,s8
a08048dc:	8fbf0014 	lw	ra,20(sp)
a08048e0:	8fbe0010 	lw	s8,16(sp)
a08048e4:	27bd0018 	addiu	sp,sp,24
a08048e8:	03e00008 	jr	ra
a08048ec:	00000000 	nop

a08048f0 <strcmp>:
a08048f0:	27bdfff0 	addiu	sp,sp,-16
a08048f4:	afbe000c 	sw	s8,12(sp)
a08048f8:	03a0f021 	move	s8,sp
a08048fc:	afc40010 	sw	a0,16(s8)
a0804900:	afc50014 	sw	a1,20(s8)
a0804904:	8fc20010 	lw	v0,16(s8)
a0804908:	80420000 	lb	v0,0(v0)
a080490c:	10400014 	beqz	v0,a0804960 <strcmp+0x70>
a0804910:	00000000 	nop
a0804914:	8fc20014 	lw	v0,20(s8)
a0804918:	80420000 	lb	v0,0(v0)
a080491c:	10400010 	beqz	v0,a0804960 <strcmp+0x70>
a0804920:	00000000 	nop
a0804924:	8fc20010 	lw	v0,16(s8)
a0804928:	80430000 	lb	v1,0(v0)
a080492c:	8fc20014 	lw	v0,20(s8)
a0804930:	80420000 	lb	v0,0(v0)
a0804934:	00621026 	xor	v0,v1,v0
a0804938:	2c420001 	sltiu	v0,v0,1
a080493c:	304300ff 	andi	v1,v0,0xff
a0804940:	8fc20010 	lw	v0,16(s8)
a0804944:	24420001 	addiu	v0,v0,1
a0804948:	afc20010 	sw	v0,16(s8)
a080494c:	8fc20014 	lw	v0,20(s8)
a0804950:	24420001 	addiu	v0,v0,1
a0804954:	afc20014 	sw	v0,20(s8)
a0804958:	1460ffea 	bnez	v1,a0804904 <strcmp+0x14>
a080495c:	00000000 	nop
a0804960:	8fc20010 	lw	v0,16(s8)
a0804964:	80420000 	lb	v0,0(v0)
a0804968:	14400008 	bnez	v0,a080498c <strcmp+0x9c>
a080496c:	00000000 	nop
a0804970:	8fc20014 	lw	v0,20(s8)
a0804974:	80420000 	lb	v0,0(v0)
a0804978:	14400004 	bnez	v0,a080498c <strcmp+0x9c>
a080497c:	00000000 	nop
a0804980:	afc00000 	sw	zero,0(s8)
a0804984:	0820126d 	j	a08049b4 <strcmp+0xc4>
a0804988:	00000000 	nop
a080498c:	8fc20010 	lw	v0,16(s8)
a0804990:	80420000 	lb	v0,0(v0)
a0804994:	14400005 	bnez	v0,a08049ac <strcmp+0xbc>
a0804998:	00000000 	nop
a080499c:	2402ffff 	li	v0,-1
a08049a0:	afc20000 	sw	v0,0(s8)
a08049a4:	0820126d 	j	a08049b4 <strcmp+0xc4>
a08049a8:	00000000 	nop
a08049ac:	24020001 	li	v0,1
a08049b0:	afc20000 	sw	v0,0(s8)
a08049b4:	8fc20000 	lw	v0,0(s8)
a08049b8:	03c0e821 	move	sp,s8
a08049bc:	8fbe000c 	lw	s8,12(sp)
a08049c0:	27bd0010 	addiu	sp,sp,16
a08049c4:	03e00008 	jr	ra
a08049c8:	00000000 	nop

a08049cc <strcpy>:
a08049cc:	27bdfff0 	addiu	sp,sp,-16
a08049d0:	afbe000c 	sw	s8,12(sp)
a08049d4:	03a0f021 	move	s8,sp
a08049d8:	afc40010 	sw	a0,16(s8)
a08049dc:	afc50014 	sw	a1,20(s8)
a08049e0:	8fc20010 	lw	v0,16(s8)
a08049e4:	afc20000 	sw	v0,0(s8)
a08049e8:	08201286 	j	a0804a18 <strcpy+0x4c>
a08049ec:	00000000 	nop
a08049f0:	8fc20014 	lw	v0,20(s8)
a08049f4:	80430000 	lb	v1,0(v0)
a08049f8:	8fc20010 	lw	v0,16(s8)
a08049fc:	a0430000 	sb	v1,0(v0)
a0804a00:	8fc20010 	lw	v0,16(s8)
a0804a04:	24420001 	addiu	v0,v0,1
a0804a08:	afc20010 	sw	v0,16(s8)
a0804a0c:	8fc20014 	lw	v0,20(s8)
a0804a10:	24420001 	addiu	v0,v0,1
a0804a14:	afc20014 	sw	v0,20(s8)
a0804a18:	8fc20014 	lw	v0,20(s8)
a0804a1c:	80420000 	lb	v0,0(v0)
a0804a20:	1440fff3 	bnez	v0,a08049f0 <strcpy+0x24>
a0804a24:	00000000 	nop
a0804a28:	8fc20010 	lw	v0,16(s8)
a0804a2c:	a0400000 	sb	zero,0(v0)
a0804a30:	8fc20000 	lw	v0,0(s8)
a0804a34:	03c0e821 	move	sp,s8
a0804a38:	8fbe000c 	lw	s8,12(sp)
a0804a3c:	27bd0010 	addiu	sp,sp,16
a0804a40:	03e00008 	jr	ra
a0804a44:	00000000 	nop

a0804a48 <strcat>:
a0804a48:	27bdfff0 	addiu	sp,sp,-16
a0804a4c:	afbe000c 	sw	s8,12(sp)
a0804a50:	03a0f021 	move	s8,sp
a0804a54:	afc40010 	sw	a0,16(s8)
a0804a58:	afc50014 	sw	a1,20(s8)
a0804a5c:	8fc20010 	lw	v0,16(s8)
a0804a60:	afc20000 	sw	v0,0(s8)
a0804a64:	0820129e 	j	a0804a78 <strcat+0x30>
a0804a68:	00000000 	nop
a0804a6c:	8fc20010 	lw	v0,16(s8)
a0804a70:	24420001 	addiu	v0,v0,1
a0804a74:	afc20010 	sw	v0,16(s8)
a0804a78:	8fc20010 	lw	v0,16(s8)
a0804a7c:	80420000 	lb	v0,0(v0)
a0804a80:	1440fffa 	bnez	v0,a0804a6c <strcat+0x24>
a0804a84:	00000000 	nop
a0804a88:	082012ae 	j	a0804ab8 <strcat+0x70>
a0804a8c:	00000000 	nop
a0804a90:	8fc20014 	lw	v0,20(s8)
a0804a94:	80430000 	lb	v1,0(v0)
a0804a98:	8fc20010 	lw	v0,16(s8)
a0804a9c:	a0430000 	sb	v1,0(v0)
a0804aa0:	8fc20010 	lw	v0,16(s8)
a0804aa4:	24420001 	addiu	v0,v0,1
a0804aa8:	afc20010 	sw	v0,16(s8)
a0804aac:	8fc20014 	lw	v0,20(s8)
a0804ab0:	24420001 	addiu	v0,v0,1
a0804ab4:	afc20014 	sw	v0,20(s8)
a0804ab8:	8fc20014 	lw	v0,20(s8)
a0804abc:	80420000 	lb	v0,0(v0)
a0804ac0:	1440fff3 	bnez	v0,a0804a90 <strcat+0x48>
a0804ac4:	00000000 	nop
a0804ac8:	8fc20010 	lw	v0,16(s8)
a0804acc:	a0400000 	sb	zero,0(v0)
a0804ad0:	8fc20000 	lw	v0,0(s8)
a0804ad4:	03c0e821 	move	sp,s8
a0804ad8:	8fbe000c 	lw	s8,12(sp)
a0804adc:	27bd0010 	addiu	sp,sp,16
a0804ae0:	03e00008 	jr	ra
a0804ae4:	00000000 	nop
	...

a0804af0 <mthread_spin_init>:
a0804af0:	27bdfff0 	addiu	sp,sp,-16
a0804af4:	afbe000c 	sw	s8,12(sp)
a0804af8:	03a0f021 	move	s8,sp
a0804afc:	afc40010 	sw	a0,16(s8)
a0804b00:	8fc20010 	lw	v0,16(s8)
a0804b04:	14400005 	bnez	v0,a0804b1c <mthread_spin_init+0x2c>
a0804b08:	00000000 	nop
a0804b0c:	24020002 	li	v0,2
a0804b10:	afc20000 	sw	v0,0(s8)
a0804b14:	082012ca 	j	a0804b28 <mthread_spin_init+0x38>
a0804b18:	00000000 	nop
a0804b1c:	8fc20010 	lw	v0,16(s8)
a0804b20:	ac400000 	sw	zero,0(v0)
a0804b24:	afc00000 	sw	zero,0(s8)
a0804b28:	8fc20000 	lw	v0,0(s8)
a0804b2c:	03c0e821 	move	sp,s8
a0804b30:	8fbe000c 	lw	s8,12(sp)
a0804b34:	27bd0010 	addiu	sp,sp,16
a0804b38:	03e00008 	jr	ra
a0804b3c:	00000000 	nop

a0804b40 <mthread_spin_destroy>:
a0804b40:	27bdfff8 	addiu	sp,sp,-8
a0804b44:	afbe0004 	sw	s8,4(sp)
a0804b48:	03a0f021 	move	s8,sp
a0804b4c:	afc40008 	sw	a0,8(s8)
a0804b50:	00001021 	move	v0,zero
a0804b54:	03c0e821 	move	sp,s8
a0804b58:	8fbe0004 	lw	s8,4(sp)
a0804b5c:	27bd0008 	addiu	sp,sp,8
a0804b60:	03e00008 	jr	ra
a0804b64:	00000000 	nop

a0804b68 <mthread_spin_trylock>:
a0804b68:	27bdffe0 	addiu	sp,sp,-32
a0804b6c:	afbf001c 	sw	ra,28(sp)
a0804b70:	afbe0018 	sw	s8,24(sp)
a0804b74:	03a0f021 	move	s8,sp
a0804b78:	afc40020 	sw	a0,32(s8)
a0804b7c:	8fc40020 	lw	a0,32(s8)
a0804b80:	24050001 	li	a1,1
a0804b84:	0c2012f3 	jal	a0804bcc <atomic_exchange>
a0804b88:	00000000 	nop
a0804b8c:	00401821 	move	v1,v0
a0804b90:	24020001 	li	v0,1
a0804b94:	14620005 	bne	v1,v0,a0804bac <mthread_spin_trylock+0x44>
a0804b98:	00000000 	nop
a0804b9c:	24020001 	li	v0,1
a0804ba0:	afc20010 	sw	v0,16(s8)
a0804ba4:	082012ec 	j	a0804bb0 <mthread_spin_trylock+0x48>
a0804ba8:	00000000 	nop
a0804bac:	afc00010 	sw	zero,16(s8)
a0804bb0:	8fc20010 	lw	v0,16(s8)
a0804bb4:	03c0e821 	move	sp,s8
a0804bb8:	8fbf001c 	lw	ra,28(sp)
a0804bbc:	8fbe0018 	lw	s8,24(sp)
a0804bc0:	27bd0020 	addiu	sp,sp,32
a0804bc4:	03e00008 	jr	ra
a0804bc8:	00000000 	nop

a0804bcc <atomic_exchange>:
a0804bcc:	27bdfff0 	addiu	sp,sp,-16
a0804bd0:	afbe000c 	sw	s8,12(sp)
a0804bd4:	03a0f021 	move	s8,sp
a0804bd8:	afc40010 	sw	a0,16(s8)
a0804bdc:	afc50014 	sw	a1,20(s8)

a0804be0 <loop>:
a0804be0:	c0820000 	ll	v0,0(a0)
a0804be4:	e0850000 	sc	a1,0(a0)
a0804be8:	10a0fffd 	beqz	a1,a0804be0 <loop>
a0804bec:	00000000 	nop
a0804bf0:	00000000 	nop
a0804bf4:	afc20000 	sw	v0,0(s8)
a0804bf8:	8fc20000 	lw	v0,0(s8)
a0804bfc:	03c0e821 	move	sp,s8
a0804c00:	8fbe000c 	lw	s8,12(sp)
a0804c04:	03e00008 	jr	ra
a0804c08:	27bd0010 	addiu	sp,sp,16

a0804c0c <mthread_spin_lock>:
a0804c0c:	27bdffe0 	addiu	sp,sp,-32
a0804c10:	afbf001c 	sw	ra,28(sp)
a0804c14:	afbe0018 	sw	s8,24(sp)
a0804c18:	03a0f021 	move	s8,sp
a0804c1c:	afc40020 	sw	a0,32(s8)
a0804c20:	8fc20020 	lw	v0,32(s8)
a0804c24:	14400005 	bnez	v0,a0804c3c <mthread_spin_lock+0x30>
a0804c28:	00000000 	nop
a0804c2c:	24020002 	li	v0,2
a0804c30:	afc20010 	sw	v0,16(s8)
a0804c34:	08201317 	j	a0804c5c <mthread_spin_lock+0x50>
a0804c38:	00000000 	nop
a0804c3c:	8fc40020 	lw	a0,32(s8)
a0804c40:	0c2012da 	jal	a0804b68 <mthread_spin_trylock>
a0804c44:	00000000 	nop
a0804c48:	00401821 	move	v1,v0
a0804c4c:	24020001 	li	v0,1
a0804c50:	1062fffa 	beq	v1,v0,a0804c3c <mthread_spin_lock+0x30>
a0804c54:	00000000 	nop
a0804c58:	afc00010 	sw	zero,16(s8)
a0804c5c:	8fc20010 	lw	v0,16(s8)
a0804c60:	03c0e821 	move	sp,s8
a0804c64:	8fbf001c 	lw	ra,28(sp)
a0804c68:	8fbe0018 	lw	s8,24(sp)
a0804c6c:	27bd0020 	addiu	sp,sp,32
a0804c70:	03e00008 	jr	ra
a0804c74:	00000000 	nop

a0804c78 <mthread_spin_unlock>:
a0804c78:	27bdfff0 	addiu	sp,sp,-16
a0804c7c:	afbe000c 	sw	s8,12(sp)
a0804c80:	03a0f021 	move	s8,sp
a0804c84:	afc40010 	sw	a0,16(s8)
a0804c88:	8fc20010 	lw	v0,16(s8)
a0804c8c:	14400005 	bnez	v0,a0804ca4 <mthread_spin_unlock+0x2c>
a0804c90:	00000000 	nop
a0804c94:	24020002 	li	v0,2
a0804c98:	afc20000 	sw	v0,0(s8)
a0804c9c:	0820132c 	j	a0804cb0 <mthread_spin_unlock+0x38>
a0804ca0:	00000000 	nop
a0804ca4:	8fc20010 	lw	v0,16(s8)
a0804ca8:	ac400000 	sw	zero,0(v0)
a0804cac:	afc00000 	sw	zero,0(s8)
a0804cb0:	8fc20000 	lw	v0,0(s8)
a0804cb4:	03c0e821 	move	sp,s8
a0804cb8:	8fbe000c 	lw	s8,12(sp)
a0804cbc:	27bd0010 	addiu	sp,sp,16
a0804cc0:	03e00008 	jr	ra
a0804cc4:	00000000 	nop

a0804cc8 <mthread_mutex_init>:
a0804cc8:	27bdfff0 	addiu	sp,sp,-16
a0804ccc:	afbe000c 	sw	s8,12(sp)
a0804cd0:	03a0f021 	move	s8,sp
a0804cd4:	afc40010 	sw	a0,16(s8)
a0804cd8:	8fc20010 	lw	v0,16(s8)
a0804cdc:	14400005 	bnez	v0,a0804cf4 <mthread_mutex_init+0x2c>
a0804ce0:	00000000 	nop
a0804ce4:	24020002 	li	v0,2
a0804ce8:	afc20000 	sw	v0,0(s8)
a0804cec:	08201340 	j	a0804d00 <mthread_mutex_init+0x38>
a0804cf0:	00000000 	nop
a0804cf4:	8fc20010 	lw	v0,16(s8)
a0804cf8:	ac400000 	sw	zero,0(v0)
a0804cfc:	afc00000 	sw	zero,0(s8)
a0804d00:	8fc20000 	lw	v0,0(s8)
a0804d04:	03c0e821 	move	sp,s8
a0804d08:	8fbe000c 	lw	s8,12(sp)
a0804d0c:	27bd0010 	addiu	sp,sp,16
a0804d10:	03e00008 	jr	ra
a0804d14:	00000000 	nop

a0804d18 <mthread_mutex_destroy>:
a0804d18:	27bdfff8 	addiu	sp,sp,-8
a0804d1c:	afbe0004 	sw	s8,4(sp)
a0804d20:	03a0f021 	move	s8,sp
a0804d24:	afc40008 	sw	a0,8(s8)
a0804d28:	00001021 	move	v0,zero
a0804d2c:	03c0e821 	move	sp,s8
a0804d30:	8fbe0004 	lw	s8,4(sp)
a0804d34:	27bd0008 	addiu	sp,sp,8
a0804d38:	03e00008 	jr	ra
a0804d3c:	00000000 	nop

a0804d40 <mthread_mutex_trylock>:
a0804d40:	27bdffe0 	addiu	sp,sp,-32
a0804d44:	afbf001c 	sw	ra,28(sp)
a0804d48:	afbe0018 	sw	s8,24(sp)
a0804d4c:	03a0f021 	move	s8,sp
a0804d50:	afc40020 	sw	a0,32(s8)
a0804d54:	8fc20020 	lw	v0,32(s8)
a0804d58:	00402021 	move	a0,v0
a0804d5c:	24050001 	li	a1,1
a0804d60:	0c2012f3 	jal	a0804bcc <atomic_exchange>
a0804d64:	00000000 	nop
a0804d68:	00401821 	move	v1,v0
a0804d6c:	24020001 	li	v0,1
a0804d70:	14620005 	bne	v1,v0,a0804d88 <mthread_mutex_trylock+0x48>
a0804d74:	00000000 	nop
a0804d78:	24020001 	li	v0,1
a0804d7c:	afc20010 	sw	v0,16(s8)
a0804d80:	08201363 	j	a0804d8c <mthread_mutex_trylock+0x4c>
a0804d84:	00000000 	nop
a0804d88:	afc00010 	sw	zero,16(s8)
a0804d8c:	8fc20010 	lw	v0,16(s8)
a0804d90:	03c0e821 	move	sp,s8
a0804d94:	8fbf001c 	lw	ra,28(sp)
a0804d98:	8fbe0018 	lw	s8,24(sp)
a0804d9c:	27bd0020 	addiu	sp,sp,32
a0804da0:	03e00008 	jr	ra
a0804da4:	00000000 	nop

a0804da8 <mthread_mutex_lock>:
a0804da8:	27bdffe0 	addiu	sp,sp,-32
a0804dac:	afbf001c 	sw	ra,28(sp)
a0804db0:	afbe0018 	sw	s8,24(sp)
a0804db4:	03a0f021 	move	s8,sp
a0804db8:	afc40020 	sw	a0,32(s8)
a0804dbc:	8fc20020 	lw	v0,32(s8)
a0804dc0:	1440000a 	bnez	v0,a0804dec <mthread_mutex_lock+0x44>
a0804dc4:	00000000 	nop
a0804dc8:	24020002 	li	v0,2
a0804dcc:	afc20010 	sw	v0,16(s8)
a0804dd0:	08201383 	j	a0804e0c <mthread_mutex_lock+0x64>
a0804dd4:	00000000 	nop
a0804dd8:	8fc20020 	lw	v0,32(s8)
a0804ddc:	00402021 	move	a0,v0
a0804de0:	24050001 	li	a1,1
a0804de4:	0c2013ee 	jal	a0804fb8 <sys_futex_wait>
a0804de8:	00000000 	nop
a0804dec:	8fc40020 	lw	a0,32(s8)
a0804df0:	0c201350 	jal	a0804d40 <mthread_mutex_trylock>
a0804df4:	00000000 	nop
a0804df8:	00401821 	move	v1,v0
a0804dfc:	24020001 	li	v0,1
a0804e00:	1062fff5 	beq	v1,v0,a0804dd8 <mthread_mutex_lock+0x30>
a0804e04:	00000000 	nop
a0804e08:	afc00010 	sw	zero,16(s8)
a0804e0c:	8fc20010 	lw	v0,16(s8)
a0804e10:	03c0e821 	move	sp,s8
a0804e14:	8fbf001c 	lw	ra,28(sp)
a0804e18:	8fbe0018 	lw	s8,24(sp)
a0804e1c:	27bd0020 	addiu	sp,sp,32
a0804e20:	03e00008 	jr	ra
a0804e24:	00000000 	nop

a0804e28 <mthread_mutex_unlock>:
a0804e28:	27bdffe0 	addiu	sp,sp,-32
a0804e2c:	afbf001c 	sw	ra,28(sp)
a0804e30:	afbe0018 	sw	s8,24(sp)
a0804e34:	03a0f021 	move	s8,sp
a0804e38:	afc40020 	sw	a0,32(s8)
a0804e3c:	8fc20020 	lw	v0,32(s8)
a0804e40:	14400005 	bnez	v0,a0804e58 <mthread_mutex_unlock+0x30>
a0804e44:	00000000 	nop
a0804e48:	24020002 	li	v0,2
a0804e4c:	afc20010 	sw	v0,16(s8)
a0804e50:	0820139e 	j	a0804e78 <mthread_mutex_unlock+0x50>
a0804e54:	00000000 	nop
a0804e58:	8fc20020 	lw	v0,32(s8)
a0804e5c:	ac400000 	sw	zero,0(v0)
a0804e60:	8fc20020 	lw	v0,32(s8)
a0804e64:	00402021 	move	a0,v0
a0804e68:	24050001 	li	a1,1
a0804e6c:	0c201402 	jal	a0805008 <sys_futex_wakeup>
a0804e70:	00000000 	nop
a0804e74:	afc00010 	sw	zero,16(s8)
a0804e78:	8fc20010 	lw	v0,16(s8)
a0804e7c:	03c0e821 	move	sp,s8
a0804e80:	8fbf001c 	lw	ra,28(sp)
a0804e84:	8fbe0018 	lw	s8,24(sp)
a0804e88:	27bd0020 	addiu	sp,sp,32
a0804e8c:	03e00008 	jr	ra
a0804e90:	00000000 	nop
	...

a0804ea0 <sys_sleep>:
a0804ea0:	27bdffe8 	addiu	sp,sp,-24
a0804ea4:	afbf0014 	sw	ra,20(sp)
a0804ea8:	afbe0010 	sw	s8,16(sp)
a0804eac:	03a0f021 	move	s8,sp
a0804eb0:	afc40018 	sw	a0,24(s8)
a0804eb4:	8fc20018 	lw	v0,24(s8)
a0804eb8:	24040002 	li	a0,2
a0804ebc:	00402821 	move	a1,v0
a0804ec0:	00003021 	move	a2,zero
a0804ec4:	00003821 	move	a3,zero
a0804ec8:	0c201438 	jal	a08050e0 <invoke_syscall>
a0804ecc:	00000000 	nop
a0804ed0:	03c0e821 	move	sp,s8
a0804ed4:	8fbf0014 	lw	ra,20(sp)
a0804ed8:	8fbe0010 	lw	s8,16(sp)
a0804edc:	27bd0018 	addiu	sp,sp,24
a0804ee0:	03e00008 	jr	ra
a0804ee4:	00000000 	nop

a0804ee8 <sys_write>:
a0804ee8:	27bdffe8 	addiu	sp,sp,-24
a0804eec:	afbf0014 	sw	ra,20(sp)
a0804ef0:	afbe0010 	sw	s8,16(sp)
a0804ef4:	03a0f021 	move	s8,sp
a0804ef8:	afc40018 	sw	a0,24(s8)
a0804efc:	8fc20018 	lw	v0,24(s8)
a0804f00:	24040014 	li	a0,20
a0804f04:	00402821 	move	a1,v0
a0804f08:	00003021 	move	a2,zero
a0804f0c:	00003821 	move	a3,zero
a0804f10:	0c201438 	jal	a08050e0 <invoke_syscall>
a0804f14:	00000000 	nop
a0804f18:	03c0e821 	move	sp,s8
a0804f1c:	8fbf0014 	lw	ra,20(sp)
a0804f20:	8fbe0010 	lw	s8,16(sp)
a0804f24:	27bd0018 	addiu	sp,sp,24
a0804f28:	03e00008 	jr	ra
a0804f2c:	00000000 	nop

a0804f30 <sys_reflush>:
a0804f30:	27bdffe8 	addiu	sp,sp,-24
a0804f34:	afbf0014 	sw	ra,20(sp)
a0804f38:	afbe0010 	sw	s8,16(sp)
a0804f3c:	03a0f021 	move	s8,sp
a0804f40:	24040017 	li	a0,23
a0804f44:	00002821 	move	a1,zero
a0804f48:	00003021 	move	a2,zero
a0804f4c:	00003821 	move	a3,zero
a0804f50:	0c201438 	jal	a08050e0 <invoke_syscall>
a0804f54:	00000000 	nop
a0804f58:	03c0e821 	move	sp,s8
a0804f5c:	8fbf0014 	lw	ra,20(sp)
a0804f60:	8fbe0010 	lw	s8,16(sp)
a0804f64:	27bd0018 	addiu	sp,sp,24
a0804f68:	03e00008 	jr	ra
a0804f6c:	00000000 	nop

a0804f70 <sys_move_cursor>:
a0804f70:	27bdffe8 	addiu	sp,sp,-24
a0804f74:	afbf0014 	sw	ra,20(sp)
a0804f78:	afbe0010 	sw	s8,16(sp)
a0804f7c:	03a0f021 	move	s8,sp
a0804f80:	afc40018 	sw	a0,24(s8)
a0804f84:	afc5001c 	sw	a1,28(s8)
a0804f88:	24040016 	li	a0,22
a0804f8c:	8fc50018 	lw	a1,24(s8)
a0804f90:	8fc6001c 	lw	a2,28(s8)
a0804f94:	00003821 	move	a3,zero
a0804f98:	0c201438 	jal	a08050e0 <invoke_syscall>
a0804f9c:	00000000 	nop
a0804fa0:	03c0e821 	move	sp,s8
a0804fa4:	8fbf0014 	lw	ra,20(sp)
a0804fa8:	8fbe0010 	lw	s8,16(sp)
a0804fac:	27bd0018 	addiu	sp,sp,24
a0804fb0:	03e00008 	jr	ra
a0804fb4:	00000000 	nop

a0804fb8 <sys_futex_wait>:
a0804fb8:	27bdffe8 	addiu	sp,sp,-24
a0804fbc:	afbf0014 	sw	ra,20(sp)
a0804fc0:	afbe0010 	sw	s8,16(sp)
a0804fc4:	03a0f021 	move	s8,sp
a0804fc8:	afc40018 	sw	a0,24(s8)
a0804fcc:	afc5001c 	sw	a1,28(s8)
a0804fd0:	8fc20018 	lw	v0,24(s8)
a0804fd4:	8fc3001c 	lw	v1,28(s8)
a0804fd8:	2404000a 	li	a0,10
a0804fdc:	00402821 	move	a1,v0
a0804fe0:	00603021 	move	a2,v1
a0804fe4:	00003821 	move	a3,zero
a0804fe8:	0c201438 	jal	a08050e0 <invoke_syscall>
a0804fec:	00000000 	nop
a0804ff0:	03c0e821 	move	sp,s8
a0804ff4:	8fbf0014 	lw	ra,20(sp)
a0804ff8:	8fbe0010 	lw	s8,16(sp)
a0804ffc:	27bd0018 	addiu	sp,sp,24
a0805000:	03e00008 	jr	ra
a0805004:	00000000 	nop

a0805008 <sys_futex_wakeup>:
a0805008:	27bdffe8 	addiu	sp,sp,-24
a080500c:	afbf0014 	sw	ra,20(sp)
a0805010:	afbe0010 	sw	s8,16(sp)
a0805014:	03a0f021 	move	s8,sp
a0805018:	afc40018 	sw	a0,24(s8)
a080501c:	afc5001c 	sw	a1,28(s8)
a0805020:	8fc20018 	lw	v0,24(s8)
a0805024:	2404000b 	li	a0,11
a0805028:	00402821 	move	a1,v0
a080502c:	8fc6001c 	lw	a2,28(s8)
a0805030:	00003821 	move	a3,zero
a0805034:	0c201438 	jal	a08050e0 <invoke_syscall>
a0805038:	00000000 	nop
a080503c:	03c0e821 	move	sp,s8
a0805040:	8fbf0014 	lw	ra,20(sp)
a0805044:	8fbe0010 	lw	s8,16(sp)
a0805048:	27bd0018 	addiu	sp,sp,24
a080504c:	03e00008 	jr	ra
a0805050:	00000000 	nop

a0805054 <sys_get_timebase>:
a0805054:	27bdffe8 	addiu	sp,sp,-24
a0805058:	afbf0014 	sw	ra,20(sp)
a080505c:	afbe0010 	sw	s8,16(sp)
a0805060:	03a0f021 	move	s8,sp
a0805064:	2404001e 	li	a0,30
a0805068:	00002821 	move	a1,zero
a080506c:	00003021 	move	a2,zero
a0805070:	00003821 	move	a3,zero
a0805074:	0c201438 	jal	a08050e0 <invoke_syscall>
a0805078:	00000000 	nop
a080507c:	03c0e821 	move	sp,s8
a0805080:	8fbf0014 	lw	ra,20(sp)
a0805084:	8fbe0010 	lw	s8,16(sp)
a0805088:	27bd0018 	addiu	sp,sp,24
a080508c:	03e00008 	jr	ra
a0805090:	00000000 	nop

a0805094 <sys_get_tick>:
a0805094:	27bdffe8 	addiu	sp,sp,-24
a0805098:	afbf0014 	sw	ra,20(sp)
a080509c:	afbe0010 	sw	s8,16(sp)
a08050a0:	03a0f021 	move	s8,sp
a08050a4:	2404001f 	li	a0,31
a08050a8:	00002821 	move	a1,zero
a08050ac:	00003021 	move	a2,zero
a08050b0:	00003821 	move	a3,zero
a08050b4:	0c201438 	jal	a08050e0 <invoke_syscall>
a08050b8:	00000000 	nop
a08050bc:	03c0e821 	move	sp,s8
a08050c0:	8fbf0014 	lw	ra,20(sp)
a08050c4:	8fbe0010 	lw	s8,16(sp)
a08050c8:	27bd0018 	addiu	sp,sp,24
a08050cc:	03e00008 	jr	ra
a08050d0:	00000000 	nop
	...

a08050e0 <invoke_syscall>:
a08050e0:	00801021 	move	v0,a0
a08050e4:	00a02021 	move	a0,a1
a08050e8:	00c02821 	move	a1,a2
a08050ec:	00e03021 	move	a2,a3
a08050f0:	0000000c 	syscall
a08050f4:	03e00008 	jr	ra
a08050f8:	00000000 	nop
a08050fc:	00000000 	nop

a0805100 <clock>:
a0805100:	27bdffe8 	addiu	sp,sp,-24
a0805104:	afbf0014 	sw	ra,20(sp)
a0805108:	afbe0010 	sw	s8,16(sp)
a080510c:	03a0f021 	move	s8,sp
a0805110:	0c201425 	jal	a0805094 <sys_get_tick>
a0805114:	00000000 	nop
a0805118:	00402021 	move	a0,v0
a080511c:	00042fc3 	sra	a1,a0,0x1f
a0805120:	00801021 	move	v0,a0
a0805124:	00a01821 	move	v1,a1
a0805128:	03c0e821 	move	sp,s8
a080512c:	8fbf0014 	lw	ra,20(sp)
a0805130:	8fbe0010 	lw	s8,16(sp)
a0805134:	27bd0018 	addiu	sp,sp,24
a0805138:	03e00008 	jr	ra
a080513c:	00000000 	nop

a0805140 <printk_task1>:
a0805140:	27bdffe0 	addiu	sp,sp,-32
a0805144:	afbf001c 	sw	ra,28(sp)
a0805148:	afbe0018 	sw	s8,24(sp)
a080514c:	03a0f021 	move	s8,sp
a0805150:	24020001 	li	v0,1
a0805154:	afc20010 	sw	v0,16(s8)
a0805158:	afc00014 	sw	zero,20(s8)
a080515c:	24040001 	li	a0,1
a0805160:	8fc50010 	lw	a1,16(s8)
a0805164:	0c200620 	jal	a0801880 <vt100_move_cursor>
a0805168:	00000000 	nop
a080516c:	3c02a080 	lui	v0,0xa080
a0805170:	24445de0 	addiu	a0,v0,24032
a0805174:	8fc50014 	lw	a1,20(s8)
a0805178:	0c200f66 	jal	a0803d98 <printk>
a080517c:	00000000 	nop
a0805180:	8fc20014 	lw	v0,20(s8)
a0805184:	24420001 	addiu	v0,v0,1
a0805188:	afc20014 	sw	v0,20(s8)
a080518c:	08201457 	j	a080515c <printk_task1+0x1c>
a0805190:	00000000 	nop

a0805194 <printk_task2>:
a0805194:	27bdffe0 	addiu	sp,sp,-32
a0805198:	afbf001c 	sw	ra,28(sp)
a080519c:	afbe0018 	sw	s8,24(sp)
a08051a0:	03a0f021 	move	s8,sp
a08051a4:	24020002 	li	v0,2
a08051a8:	afc20010 	sw	v0,16(s8)
a08051ac:	afc00014 	sw	zero,20(s8)
a08051b0:	24040001 	li	a0,1
a08051b4:	8fc50010 	lw	a1,16(s8)
a08051b8:	0c200620 	jal	a0801880 <vt100_move_cursor>
a08051bc:	00000000 	nop
a08051c0:	3c02a080 	lui	v0,0xa080
a08051c4:	24445e10 	addiu	a0,v0,24080
a08051c8:	8fc50014 	lw	a1,20(s8)
a08051cc:	0c200f66 	jal	a0803d98 <printk>
a08051d0:	00000000 	nop
a08051d4:	8fc20014 	lw	v0,20(s8)
a08051d8:	24420001 	addiu	v0,v0,1
a08051dc:	afc20014 	sw	v0,20(s8)
a08051e0:	0820146c 	j	a08051b0 <printk_task2+0x1c>
a08051e4:	00000000 	nop

a08051e8 <drawing_task1>:
a08051e8:	27bdffe0 	addiu	sp,sp,-32
a08051ec:	afbf001c 	sw	ra,28(sp)
a08051f0:	afbe0018 	sw	s8,24(sp)
a08051f4:	03a0f021 	move	s8,sp
a08051f8:	24020016 	li	v0,22
a08051fc:	afc20010 	sw	v0,16(s8)
a0805200:	2402003c 	li	v0,60
a0805204:	afc20014 	sw	v0,20(s8)
a0805208:	082014b5 	j	a08052d4 <drawing_task1+0xec>
a080520c:	00000000 	nop
a0805210:	8fc40014 	lw	a0,20(s8)
a0805214:	8fc50010 	lw	a1,16(s8)
a0805218:	0c200620 	jal	a0801880 <vt100_move_cursor>
a080521c:	00000000 	nop
a0805220:	3c02a080 	lui	v0,0xa080
a0805224:	24445e40 	addiu	a0,v0,24128
a0805228:	3c02a080 	lui	v0,0xa080
a080522c:	24456414 	addiu	a1,v0,25620
a0805230:	0c200f66 	jal	a0803d98 <printk>
a0805234:	00000000 	nop
a0805238:	8fc20010 	lw	v0,16(s8)
a080523c:	24420001 	addiu	v0,v0,1
a0805240:	8fc40014 	lw	a0,20(s8)
a0805244:	00402821 	move	a1,v0
a0805248:	0c200620 	jal	a0801880 <vt100_move_cursor>
a080524c:	00000000 	nop
a0805250:	3c02a080 	lui	v0,0xa080
a0805254:	24445e40 	addiu	a0,v0,24128
a0805258:	3c02a080 	lui	v0,0xa080
a080525c:	24456428 	addiu	a1,v0,25640
a0805260:	0c200f66 	jal	a0803d98 <printk>
a0805264:	00000000 	nop
a0805268:	8fc20010 	lw	v0,16(s8)
a080526c:	24420002 	addiu	v0,v0,2
a0805270:	8fc40014 	lw	a0,20(s8)
a0805274:	00402821 	move	a1,v0
a0805278:	0c200620 	jal	a0801880 <vt100_move_cursor>
a080527c:	00000000 	nop
a0805280:	3c02a080 	lui	v0,0xa080
a0805284:	24445e40 	addiu	a0,v0,24128
a0805288:	3c02a080 	lui	v0,0xa080
a080528c:	2445643c 	addiu	a1,v0,25660
a0805290:	0c200f66 	jal	a0803d98 <printk>
a0805294:	00000000 	nop
a0805298:	8fc20010 	lw	v0,16(s8)
a080529c:	24420003 	addiu	v0,v0,3
a08052a0:	8fc40014 	lw	a0,20(s8)
a08052a4:	00402821 	move	a1,v0
a08052a8:	0c200620 	jal	a0801880 <vt100_move_cursor>
a08052ac:	00000000 	nop
a08052b0:	3c02a080 	lui	v0,0xa080
a08052b4:	24445e40 	addiu	a0,v0,24128
a08052b8:	3c02a080 	lui	v0,0xa080
a08052bc:	24456450 	addiu	a1,v0,25680
a08052c0:	0c200f66 	jal	a0803d98 <printk>
a08052c4:	00000000 	nop
a08052c8:	8fc20014 	lw	v0,20(s8)
a08052cc:	2442ffff 	addiu	v0,v0,-1
a08052d0:	afc20014 	sw	v0,20(s8)
a08052d4:	8fc20014 	lw	v0,20(s8)
a08052d8:	1c40ffcd 	bgtz	v0,a0805210 <drawing_task1+0x28>
a08052dc:	00000000 	nop
a08052e0:	24040001 	li	a0,1
a08052e4:	8fc50010 	lw	a1,16(s8)
a08052e8:	0c200620 	jal	a0801880 <vt100_move_cursor>
a08052ec:	00000000 	nop
a08052f0:	3c02a080 	lui	v0,0xa080
a08052f4:	24445e40 	addiu	a0,v0,24128
a08052f8:	3c02a080 	lui	v0,0xa080
a08052fc:	24456400 	addiu	a1,v0,25600
a0805300:	0c200f66 	jal	a0803d98 <printk>
a0805304:	00000000 	nop
a0805308:	8fc20010 	lw	v0,16(s8)
a080530c:	24420001 	addiu	v0,v0,1
a0805310:	24040001 	li	a0,1
a0805314:	00402821 	move	a1,v0
a0805318:	0c200620 	jal	a0801880 <vt100_move_cursor>
a080531c:	00000000 	nop
a0805320:	3c02a080 	lui	v0,0xa080
a0805324:	24445e40 	addiu	a0,v0,24128
a0805328:	3c02a080 	lui	v0,0xa080
a080532c:	24456400 	addiu	a1,v0,25600
a0805330:	0c200f66 	jal	a0803d98 <printk>
a0805334:	00000000 	nop
a0805338:	8fc20010 	lw	v0,16(s8)
a080533c:	24420002 	addiu	v0,v0,2
a0805340:	24040001 	li	a0,1
a0805344:	00402821 	move	a1,v0
a0805348:	0c200620 	jal	a0801880 <vt100_move_cursor>
a080534c:	00000000 	nop
a0805350:	3c02a080 	lui	v0,0xa080
a0805354:	24445e40 	addiu	a0,v0,24128
a0805358:	3c02a080 	lui	v0,0xa080
a080535c:	24456400 	addiu	a1,v0,25600
a0805360:	0c200f66 	jal	a0803d98 <printk>
a0805364:	00000000 	nop
a0805368:	8fc20010 	lw	v0,16(s8)
a080536c:	24420003 	addiu	v0,v0,3
a0805370:	24040001 	li	a0,1
a0805374:	00402821 	move	a1,v0
a0805378:	0c200620 	jal	a0801880 <vt100_move_cursor>
a080537c:	00000000 	nop
a0805380:	3c02a080 	lui	v0,0xa080
a0805384:	24445e40 	addiu	a0,v0,24128
a0805388:	3c02a080 	lui	v0,0xa080
a080538c:	24456400 	addiu	a1,v0,25600
a0805390:	0c200f66 	jal	a0803d98 <printk>
a0805394:	00000000 	nop
a0805398:	08201480 	j	a0805200 <drawing_task1+0x18>
a080539c:	00000000 	nop

a08053a0 <lock_task1>:
a08053a0:	27bdffe0 	addiu	sp,sp,-32
a08053a4:	afbf001c 	sw	ra,28(sp)
a08053a8:	afbe0018 	sw	s8,24(sp)
a08053ac:	03a0f021 	move	s8,sp
a08053b0:	24020003 	li	v0,3
a08053b4:	afc20014 	sw	v0,20(s8)
a08053b8:	3c02a081 	lui	v0,0xa081
a08053bc:	8c4284f0 	lw	v0,-31504(v0)
a08053c0:	14400008 	bnez	v0,a08053e4 <lock_task1+0x44>
a08053c4:	00000000 	nop
a08053c8:	3c02a081 	lui	v0,0xa081
a08053cc:	2444a090 	addiu	a0,v0,-24432
a08053d0:	0c2007a4 	jal	a0801e90 <do_mutex_lock_init>
a08053d4:	00000000 	nop
a08053d8:	3c03a081 	lui	v1,0xa081
a08053dc:	24020001 	li	v0,1
a08053e0:	ac6284f0 	sw	v0,-31504(v1)
a08053e4:	24040001 	li	a0,1
a08053e8:	8fc50014 	lw	a1,20(s8)
a08053ec:	0c200620 	jal	a0801880 <vt100_move_cursor>
a08053f0:	00000000 	nop
a08053f4:	3c02a080 	lui	v0,0xa080
a08053f8:	24445e50 	addiu	a0,v0,24144
a08053fc:	3c02a080 	lui	v0,0xa080
a0805400:	24456470 	addiu	a1,v0,25712
a0805404:	0c200f66 	jal	a0803d98 <printk>
a0805408:	00000000 	nop
a080540c:	24040001 	li	a0,1
a0805410:	8fc50014 	lw	a1,20(s8)
a0805414:	0c200620 	jal	a0801880 <vt100_move_cursor>
a0805418:	00000000 	nop
a080541c:	3c02a080 	lui	v0,0xa080
a0805420:	24445e54 	addiu	a0,v0,24148
a0805424:	0c200f66 	jal	a0803d98 <printk>
a0805428:	00000000 	nop
a080542c:	3c02a081 	lui	v0,0xa081
a0805430:	2444a090 	addiu	a0,v0,-24432
a0805434:	0c2007c7 	jal	a0801f1c <do_mutex_lock_acquire>
a0805438:	00000000 	nop
a080543c:	afc00010 	sw	zero,16(s8)
a0805440:	0820151e 	j	a0805478 <lock_task1+0xd8>
a0805444:	00000000 	nop
a0805448:	24040001 	li	a0,1
a080544c:	8fc50014 	lw	a1,20(s8)
a0805450:	0c200620 	jal	a0801880 <vt100_move_cursor>
a0805454:	00000000 	nop
a0805458:	3c02a080 	lui	v0,0xa080
a080545c:	24445e74 	addiu	a0,v0,24180
a0805460:	8fc50010 	lw	a1,16(s8)
a0805464:	0c200f66 	jal	a0803d98 <printk>
a0805468:	00000000 	nop
a080546c:	8fc20010 	lw	v0,16(s8)
a0805470:	24420001 	addiu	v0,v0,1
a0805474:	afc20010 	sw	v0,16(s8)
a0805478:	8fc20010 	lw	v0,16(s8)
a080547c:	28420014 	slti	v0,v0,20
a0805480:	1440fff1 	bnez	v0,a0805448 <lock_task1+0xa8>
a0805484:	00000000 	nop
a0805488:	24040001 	li	a0,1
a080548c:	8fc50014 	lw	a1,20(s8)
a0805490:	0c200620 	jal	a0801880 <vt100_move_cursor>
a0805494:	00000000 	nop
a0805498:	3c02a080 	lui	v0,0xa080
a080549c:	24445e50 	addiu	a0,v0,24144
a08054a0:	3c02a080 	lui	v0,0xa080
a08054a4:	24456470 	addiu	a1,v0,25712
a08054a8:	0c200f66 	jal	a0803d98 <printk>
a08054ac:	00000000 	nop
a08054b0:	24040001 	li	a0,1
a08054b4:	8fc50014 	lw	a1,20(s8)
a08054b8:	0c200620 	jal	a0801880 <vt100_move_cursor>
a08054bc:	00000000 	nop
a08054c0:	3c02a080 	lui	v0,0xa080
a08054c4:	24445ea4 	addiu	a0,v0,24228
a08054c8:	0c200f66 	jal	a0803d98 <printk>
a08054cc:	00000000 	nop
a08054d0:	3c02a081 	lui	v0,0xa081
a08054d4:	2444a090 	addiu	a0,v0,-24432
a08054d8:	0c2007d0 	jal	a0801f40 <do_mutex_lock_release>
a08054dc:	00000000 	nop
a08054e0:	082014ee 	j	a08053b8 <lock_task1+0x18>
a08054e4:	00000000 	nop

a08054e8 <lock_task2>:
a08054e8:	27bdffe0 	addiu	sp,sp,-32
a08054ec:	afbf001c 	sw	ra,28(sp)
a08054f0:	afbe0018 	sw	s8,24(sp)
a08054f4:	03a0f021 	move	s8,sp
a08054f8:	24020004 	li	v0,4
a08054fc:	afc20014 	sw	v0,20(s8)
a0805500:	3c02a081 	lui	v0,0xa081
a0805504:	8c4284f0 	lw	v0,-31504(v0)
a0805508:	14400008 	bnez	v0,a080552c <lock_task2+0x44>
a080550c:	00000000 	nop
a0805510:	3c02a081 	lui	v0,0xa081
a0805514:	2444a090 	addiu	a0,v0,-24432
a0805518:	0c2007a4 	jal	a0801e90 <do_mutex_lock_init>
a080551c:	00000000 	nop
a0805520:	3c03a081 	lui	v1,0xa081
a0805524:	24020001 	li	v0,1
a0805528:	ac6284f0 	sw	v0,-31504(v1)
a080552c:	24040001 	li	a0,1
a0805530:	8fc50014 	lw	a1,20(s8)
a0805534:	0c200620 	jal	a0801880 <vt100_move_cursor>
a0805538:	00000000 	nop
a080553c:	3c02a080 	lui	v0,0xa080
a0805540:	24445e50 	addiu	a0,v0,24144
a0805544:	3c02a080 	lui	v0,0xa080
a0805548:	24456470 	addiu	a1,v0,25712
a080554c:	0c200f66 	jal	a0803d98 <printk>
a0805550:	00000000 	nop
a0805554:	24040001 	li	a0,1
a0805558:	8fc50014 	lw	a1,20(s8)
a080555c:	0c200620 	jal	a0801880 <vt100_move_cursor>
a0805560:	00000000 	nop
a0805564:	3c02a080 	lui	v0,0xa080
a0805568:	24445e54 	addiu	a0,v0,24148
a080556c:	0c200f66 	jal	a0803d98 <printk>
a0805570:	00000000 	nop
a0805574:	3c02a081 	lui	v0,0xa081
a0805578:	2444a090 	addiu	a0,v0,-24432
a080557c:	0c2007c7 	jal	a0801f1c <do_mutex_lock_acquire>
a0805580:	00000000 	nop
a0805584:	afc00010 	sw	zero,16(s8)
a0805588:	08201570 	j	a08055c0 <lock_task2+0xd8>
a080558c:	00000000 	nop
a0805590:	24040001 	li	a0,1
a0805594:	8fc50014 	lw	a1,20(s8)
a0805598:	0c200620 	jal	a0801880 <vt100_move_cursor>
a080559c:	00000000 	nop
a08055a0:	3c02a080 	lui	v0,0xa080
a08055a4:	24445e74 	addiu	a0,v0,24180
a08055a8:	8fc50010 	lw	a1,16(s8)
a08055ac:	0c200f66 	jal	a0803d98 <printk>
a08055b0:	00000000 	nop
a08055b4:	8fc20010 	lw	v0,16(s8)
a08055b8:	24420001 	addiu	v0,v0,1
a08055bc:	afc20010 	sw	v0,16(s8)
a08055c0:	8fc20010 	lw	v0,16(s8)
a08055c4:	28420014 	slti	v0,v0,20
a08055c8:	1440fff1 	bnez	v0,a0805590 <lock_task2+0xa8>
a08055cc:	00000000 	nop
a08055d0:	24040001 	li	a0,1
a08055d4:	8fc50014 	lw	a1,20(s8)
a08055d8:	0c200620 	jal	a0801880 <vt100_move_cursor>
a08055dc:	00000000 	nop
a08055e0:	3c02a080 	lui	v0,0xa080
a08055e4:	24445e50 	addiu	a0,v0,24144
a08055e8:	3c02a080 	lui	v0,0xa080
a08055ec:	24456470 	addiu	a1,v0,25712
a08055f0:	0c200f66 	jal	a0803d98 <printk>
a08055f4:	00000000 	nop
a08055f8:	24040001 	li	a0,1
a08055fc:	8fc50014 	lw	a1,20(s8)
a0805600:	0c200620 	jal	a0801880 <vt100_move_cursor>
a0805604:	00000000 	nop
a0805608:	3c02a080 	lui	v0,0xa080
a080560c:	24445ea4 	addiu	a0,v0,24228
a0805610:	0c200f66 	jal	a0803d98 <printk>
a0805614:	00000000 	nop
a0805618:	3c02a081 	lui	v0,0xa081
a080561c:	2444a090 	addiu	a0,v0,-24432
a0805620:	0c2007d0 	jal	a0801f40 <do_mutex_lock_release>
a0805624:	00000000 	nop
a0805628:	08201540 	j	a0805500 <lock_task2+0x18>
a080562c:	00000000 	nop

a0805630 <printf_task1>:
a0805630:	27bdffe0 	addiu	sp,sp,-32
a0805634:	afbf001c 	sw	ra,28(sp)
a0805638:	afbe0018 	sw	s8,24(sp)
a080563c:	03a0f021 	move	s8,sp
a0805640:	24020005 	li	v0,5
a0805644:	afc20010 	sw	v0,16(s8)
a0805648:	afc00014 	sw	zero,20(s8)
a080564c:	24040001 	li	a0,1
a0805650:	8fc50010 	lw	a1,16(s8)
a0805654:	0c2013dc 	jal	a0804f70 <sys_move_cursor>
a0805658:	00000000 	nop
a080565c:	3c02a080 	lui	v0,0xa080
a0805660:	24445ed0 	addiu	a0,v0,24272
a0805664:	8fc50014 	lw	a1,20(s8)
a0805668:	0c2011c4 	jal	a0804710 <printf>
a080566c:	00000000 	nop
a0805670:	8fc20014 	lw	v0,20(s8)
a0805674:	24420001 	addiu	v0,v0,1
a0805678:	afc20014 	sw	v0,20(s8)
a080567c:	08201593 	j	a080564c <printf_task1+0x1c>
a0805680:	00000000 	nop

a0805684 <printf_task2>:
a0805684:	27bdffe0 	addiu	sp,sp,-32
a0805688:	afbf001c 	sw	ra,28(sp)
a080568c:	afbe0018 	sw	s8,24(sp)
a0805690:	03a0f021 	move	s8,sp
a0805694:	24020006 	li	v0,6
a0805698:	afc20010 	sw	v0,16(s8)
a080569c:	afc00014 	sw	zero,20(s8)
a08056a0:	24040001 	li	a0,1
a08056a4:	8fc50010 	lw	a1,16(s8)
a08056a8:	0c2013dc 	jal	a0804f70 <sys_move_cursor>
a08056ac:	00000000 	nop
a08056b0:	3c02a080 	lui	v0,0xa080
a08056b4:	24445ed0 	addiu	a0,v0,24272
a08056b8:	8fc50014 	lw	a1,20(s8)
a08056bc:	0c2011c4 	jal	a0804710 <printf>
a08056c0:	00000000 	nop
a08056c4:	8fc20014 	lw	v0,20(s8)
a08056c8:	24420001 	addiu	v0,v0,1
a08056cc:	afc20014 	sw	v0,20(s8)
a08056d0:	082015a8 	j	a08056a0 <printf_task2+0x1c>
a08056d4:	00000000 	nop

a08056d8 <drawing_task2>:
a08056d8:	27bdffe0 	addiu	sp,sp,-32
a08056dc:	afbf001c 	sw	ra,28(sp)
a08056e0:	afbe0018 	sw	s8,24(sp)
a08056e4:	03a0f021 	move	s8,sp
a08056e8:	24020016 	li	v0,22
a08056ec:	afc20010 	sw	v0,16(s8)
a08056f0:	24020037 	li	v0,55
a08056f4:	afc20014 	sw	v0,20(s8)
a08056f8:	082015f1 	j	a08057c4 <drawing_task2+0xec>
a08056fc:	00000000 	nop
a0805700:	8fc40014 	lw	a0,20(s8)
a0805704:	8fc50010 	lw	a1,16(s8)
a0805708:	0c2013dc 	jal	a0804f70 <sys_move_cursor>
a080570c:	00000000 	nop
a0805710:	3c02a080 	lui	v0,0xa080
a0805714:	24445f00 	addiu	a0,v0,24320
a0805718:	3c02a080 	lui	v0,0xa080
a080571c:	244564b8 	addiu	a1,v0,25784
a0805720:	0c2011c4 	jal	a0804710 <printf>
a0805724:	00000000 	nop
a0805728:	8fc20010 	lw	v0,16(s8)
a080572c:	24420001 	addiu	v0,v0,1
a0805730:	8fc40014 	lw	a0,20(s8)
a0805734:	00402821 	move	a1,v0
a0805738:	0c2013dc 	jal	a0804f70 <sys_move_cursor>
a080573c:	00000000 	nop
a0805740:	3c02a080 	lui	v0,0xa080
a0805744:	24445f00 	addiu	a0,v0,24320
a0805748:	3c02a080 	lui	v0,0xa080
a080574c:	244564d0 	addiu	a1,v0,25808
a0805750:	0c2011c4 	jal	a0804710 <printf>
a0805754:	00000000 	nop
a0805758:	8fc20010 	lw	v0,16(s8)
a080575c:	24420002 	addiu	v0,v0,2
a0805760:	8fc40014 	lw	a0,20(s8)
a0805764:	00402821 	move	a1,v0
a0805768:	0c2013dc 	jal	a0804f70 <sys_move_cursor>
a080576c:	00000000 	nop
a0805770:	3c02a080 	lui	v0,0xa080
a0805774:	24445f00 	addiu	a0,v0,24320
a0805778:	3c02a080 	lui	v0,0xa080
a080577c:	244564e4 	addiu	a1,v0,25828
a0805780:	0c2011c4 	jal	a0804710 <printf>
a0805784:	00000000 	nop
a0805788:	8fc20010 	lw	v0,16(s8)
a080578c:	24420003 	addiu	v0,v0,3
a0805790:	8fc40014 	lw	a0,20(s8)
a0805794:	00402821 	move	a1,v0
a0805798:	0c2013dc 	jal	a0804f70 <sys_move_cursor>
a080579c:	00000000 	nop
a08057a0:	3c02a080 	lui	v0,0xa080
a08057a4:	24445f00 	addiu	a0,v0,24320
a08057a8:	3c02a080 	lui	v0,0xa080
a08057ac:	244564f8 	addiu	a1,v0,25848
a08057b0:	0c2011c4 	jal	a0804710 <printf>
a08057b4:	00000000 	nop
a08057b8:	8fc20014 	lw	v0,20(s8)
a08057bc:	2442ffff 	addiu	v0,v0,-1
a08057c0:	afc20014 	sw	v0,20(s8)
a08057c4:	8fc20014 	lw	v0,20(s8)
a08057c8:	1c40ffcd 	bgtz	v0,a0805700 <drawing_task2+0x28>
a08057cc:	00000000 	nop
a08057d0:	24040001 	li	a0,1
a08057d4:	8fc50010 	lw	a1,16(s8)
a08057d8:	0c2013dc 	jal	a0804f70 <sys_move_cursor>
a08057dc:	00000000 	nop
a08057e0:	3c02a080 	lui	v0,0xa080
a08057e4:	24445f00 	addiu	a0,v0,24320
a08057e8:	3c02a080 	lui	v0,0xa080
a08057ec:	244564a0 	addiu	a1,v0,25760
a08057f0:	0c2011c4 	jal	a0804710 <printf>
a08057f4:	00000000 	nop
a08057f8:	8fc20010 	lw	v0,16(s8)
a08057fc:	24420001 	addiu	v0,v0,1
a0805800:	24040001 	li	a0,1
a0805804:	00402821 	move	a1,v0
a0805808:	0c2013dc 	jal	a0804f70 <sys_move_cursor>
a080580c:	00000000 	nop
a0805810:	3c02a080 	lui	v0,0xa080
a0805814:	24445f00 	addiu	a0,v0,24320
a0805818:	3c02a080 	lui	v0,0xa080
a080581c:	244564a0 	addiu	a1,v0,25760
a0805820:	0c2011c4 	jal	a0804710 <printf>
a0805824:	00000000 	nop
a0805828:	8fc20010 	lw	v0,16(s8)
a080582c:	24420002 	addiu	v0,v0,2
a0805830:	24040001 	li	a0,1
a0805834:	00402821 	move	a1,v0
a0805838:	0c2013dc 	jal	a0804f70 <sys_move_cursor>
a080583c:	00000000 	nop
a0805840:	3c02a080 	lui	v0,0xa080
a0805844:	24445f00 	addiu	a0,v0,24320
a0805848:	3c02a080 	lui	v0,0xa080
a080584c:	244564a0 	addiu	a1,v0,25760
a0805850:	0c2011c4 	jal	a0804710 <printf>
a0805854:	00000000 	nop
a0805858:	8fc20010 	lw	v0,16(s8)
a080585c:	24420003 	addiu	v0,v0,3
a0805860:	24040001 	li	a0,1
a0805864:	00402821 	move	a1,v0
a0805868:	0c2013dc 	jal	a0804f70 <sys_move_cursor>
a080586c:	00000000 	nop
a0805870:	3c02a080 	lui	v0,0xa080
a0805874:	24445f00 	addiu	a0,v0,24320
a0805878:	3c02a080 	lui	v0,0xa080
a080587c:	244564a0 	addiu	a1,v0,25760
a0805880:	0c2011c4 	jal	a0804710 <printf>
a0805884:	00000000 	nop
a0805888:	082015bc 	j	a08056f0 <drawing_task2+0x18>
a080588c:	00000000 	nop

a0805890 <sleep_task>:
a0805890:	27bdffd8 	addiu	sp,sp,-40
a0805894:	afbf0024 	sw	ra,36(sp)
a0805898:	afbe0020 	sw	s8,32(sp)
a080589c:	03a0f021 	move	s8,sp
a08058a0:	24020001 	li	v0,1
a08058a4:	afc20014 	sw	v0,20(s8)
a08058a8:	24020005 	li	v0,5
a08058ac:	afc20010 	sw	v0,16(s8)
a08058b0:	afc00018 	sw	zero,24(s8)
a08058b4:	0820163e 	j	a08058f8 <sleep_task+0x68>
a08058b8:	00000000 	nop
a08058bc:	24040001 	li	a0,1
a08058c0:	8fc50014 	lw	a1,20(s8)
a08058c4:	0c2013dc 	jal	a0804f70 <sys_move_cursor>
a08058c8:	00000000 	nop
a08058cc:	3c02a080 	lui	v0,0xa080
a08058d0:	24445f10 	addiu	a0,v0,24336
a08058d4:	8fc50018 	lw	a1,24(s8)
a08058d8:	0c2011c4 	jal	a0804710 <printf>
a08058dc:	00000000 	nop
a08058e0:	24040001 	li	a0,1
a08058e4:	0c2013a8 	jal	a0804ea0 <sys_sleep>
a08058e8:	00000000 	nop
a08058ec:	8fc20018 	lw	v0,24(s8)
a08058f0:	24420001 	addiu	v0,v0,1
a08058f4:	afc20018 	sw	v0,24(s8)
a08058f8:	8fc20018 	lw	v0,24(s8)
a08058fc:	2842000a 	slti	v0,v0,10
a0805900:	1440ffee 	bnez	v0,a08058bc <sleep_task+0x2c>
a0805904:	00000000 	nop
a0805908:	24040001 	li	a0,1
a080590c:	8fc50014 	lw	a1,20(s8)
a0805910:	0c2013dc 	jal	a0804f70 <sys_move_cursor>
a0805914:	00000000 	nop
a0805918:	3c02a080 	lui	v0,0xa080
a080591c:	24445f40 	addiu	a0,v0,24384
a0805920:	8fc50010 	lw	a1,16(s8)
a0805924:	0c2011c4 	jal	a0804710 <printf>
a0805928:	00000000 	nop
a080592c:	8fc20010 	lw	v0,16(s8)
a0805930:	00402021 	move	a0,v0
a0805934:	0c2013a8 	jal	a0804ea0 <sys_sleep>
a0805938:	00000000 	nop
a080593c:	24040001 	li	a0,1
a0805940:	8fc50014 	lw	a1,20(s8)
a0805944:	0c2013dc 	jal	a0804f70 <sys_move_cursor>
a0805948:	00000000 	nop
a080594c:	3c02a080 	lui	v0,0xa080
a0805950:	24445f74 	addiu	a0,v0,24436
a0805954:	3c02a080 	lui	v0,0xa080
a0805958:	24456510 	addiu	a1,v0,25872
a080595c:	0c2011c4 	jal	a0804710 <printf>
a0805960:	00000000 	nop
a0805964:	0820162c 	j	a08058b0 <sleep_task+0x20>
a0805968:	00000000 	nop
a080596c:	00000000 	nop

a0805970 <timer_task>:
a0805970:	27bdffd0 	addiu	sp,sp,-48
a0805974:	afbf002c 	sw	ra,44(sp)
a0805978:	afbe0028 	sw	s8,40(sp)
a080597c:	03a0f021 	move	s8,sp
a0805980:	24020002 	li	v0,2
a0805984:	afc20018 	sw	v0,24(s8)
a0805988:	0c201440 	jal	a0805100 <clock>
a080598c:	00000000 	nop
a0805990:	afc20014 	sw	v0,20(s8)
a0805994:	0c201415 	jal	a0805054 <sys_get_timebase>
a0805998:	00000000 	nop
a080599c:	00401821 	move	v1,v0
a08059a0:	8fc20014 	lw	v0,20(s8)
a08059a4:	0043001b 	divu	zero,v0,v1
a08059a8:	006001f4 	teq	v1,zero,0x7
a08059ac:	00001012 	mflo	v0
a08059b0:	afc20010 	sw	v0,16(s8)
a08059b4:	24040001 	li	a0,1
a08059b8:	8fc50018 	lw	a1,24(s8)
a08059bc:	0c2013dc 	jal	a0804f70 <sys_move_cursor>
a08059c0:	00000000 	nop
a08059c4:	3c02a080 	lui	v0,0xa080
a08059c8:	24445f80 	addiu	a0,v0,24448
a08059cc:	8fc50010 	lw	a1,16(s8)
a08059d0:	8fc60014 	lw	a2,20(s8)
a08059d4:	0c2011c4 	jal	a0804710 <printf>
a08059d8:	00000000 	nop
a08059dc:	08201662 	j	a0805988 <timer_task+0x18>
a08059e0:	00000000 	nop
	...

a08059f0 <lock2_task1>:
a08059f0:	27bdffe0 	addiu	sp,sp,-32
a08059f4:	afbf001c 	sw	ra,28(sp)
a08059f8:	afbe0018 	sw	s8,24(sp)
a08059fc:	03a0f021 	move	s8,sp
a0805a00:	24020003 	li	v0,3
a0805a04:	afc20014 	sw	v0,20(s8)
a0805a08:	3c02a081 	lui	v0,0xa081
a0805a0c:	8c428500 	lw	v0,-31488(v0)
a0805a10:	14400008 	bnez	v0,a0805a34 <lock2_task1+0x44>
a0805a14:	00000000 	nop
a0805a18:	3c02a081 	lui	v0,0xa081
a0805a1c:	24448508 	addiu	a0,v0,-31480
a0805a20:	0c201332 	jal	a0804cc8 <mthread_mutex_init>
a0805a24:	00000000 	nop
a0805a28:	3c03a081 	lui	v1,0xa081
a0805a2c:	24020001 	li	v0,1
a0805a30:	ac628500 	sw	v0,-31488(v1)
a0805a34:	24040001 	li	a0,1
a0805a38:	8fc50014 	lw	a1,20(s8)
a0805a3c:	0c2013dc 	jal	a0804f70 <sys_move_cursor>
a0805a40:	00000000 	nop
a0805a44:	3c02a080 	lui	v0,0xa080
a0805a48:	24445fc0 	addiu	a0,v0,24512
a0805a4c:	3c02a080 	lui	v0,0xa080
a0805a50:	24456550 	addiu	a1,v0,25936
a0805a54:	0c2011c4 	jal	a0804710 <printf>
a0805a58:	00000000 	nop
a0805a5c:	24040001 	li	a0,1
a0805a60:	8fc50014 	lw	a1,20(s8)
a0805a64:	0c2013dc 	jal	a0804f70 <sys_move_cursor>
a0805a68:	00000000 	nop
a0805a6c:	3c02a080 	lui	v0,0xa080
a0805a70:	24445fc4 	addiu	a0,v0,24516
a0805a74:	0c2011c4 	jal	a0804710 <printf>
a0805a78:	00000000 	nop
a0805a7c:	3c02a081 	lui	v0,0xa081
a0805a80:	24448508 	addiu	a0,v0,-31480
a0805a84:	0c20136a 	jal	a0804da8 <mthread_mutex_lock>
a0805a88:	00000000 	nop
a0805a8c:	afc00010 	sw	zero,16(s8)
a0805a90:	082016b2 	j	a0805ac8 <lock2_task1+0xd8>
a0805a94:	00000000 	nop
a0805a98:	24040001 	li	a0,1
a0805a9c:	8fc50014 	lw	a1,20(s8)
a0805aa0:	0c2013dc 	jal	a0804f70 <sys_move_cursor>
a0805aa4:	00000000 	nop
a0805aa8:	3c02a080 	lui	v0,0xa080
a0805aac:	24445fe4 	addiu	a0,v0,24548
a0805ab0:	8fc50010 	lw	a1,16(s8)
a0805ab4:	0c2011c4 	jal	a0804710 <printf>
a0805ab8:	00000000 	nop
a0805abc:	8fc20010 	lw	v0,16(s8)
a0805ac0:	24420001 	addiu	v0,v0,1
a0805ac4:	afc20010 	sw	v0,16(s8)
a0805ac8:	8fc20010 	lw	v0,16(s8)
a0805acc:	284203e8 	slti	v0,v0,1000
a0805ad0:	1440fff1 	bnez	v0,a0805a98 <lock2_task1+0xa8>
a0805ad4:	00000000 	nop
a0805ad8:	24040001 	li	a0,1
a0805adc:	8fc50014 	lw	a1,20(s8)
a0805ae0:	0c2013dc 	jal	a0804f70 <sys_move_cursor>
a0805ae4:	00000000 	nop
a0805ae8:	3c02a080 	lui	v0,0xa080
a0805aec:	24445fc0 	addiu	a0,v0,24512
a0805af0:	3c02a080 	lui	v0,0xa080
a0805af4:	24456550 	addiu	a1,v0,25936
a0805af8:	0c2011c4 	jal	a0804710 <printf>
a0805afc:	00000000 	nop
a0805b00:	24040001 	li	a0,1
a0805b04:	8fc50014 	lw	a1,20(s8)
a0805b08:	0c2013dc 	jal	a0804f70 <sys_move_cursor>
a0805b0c:	00000000 	nop
a0805b10:	3c02a080 	lui	v0,0xa080
a0805b14:	24446014 	addiu	a0,v0,24596
a0805b18:	0c2011c4 	jal	a0804710 <printf>
a0805b1c:	00000000 	nop
a0805b20:	3c02a081 	lui	v0,0xa081
a0805b24:	24448508 	addiu	a0,v0,-31480
a0805b28:	0c20138a 	jal	a0804e28 <mthread_mutex_unlock>
a0805b2c:	00000000 	nop
a0805b30:	08201682 	j	a0805a08 <lock2_task1+0x18>
a0805b34:	00000000 	nop

a0805b38 <lock2_task2>:
a0805b38:	27bdffe0 	addiu	sp,sp,-32
a0805b3c:	afbf001c 	sw	ra,28(sp)
a0805b40:	afbe0018 	sw	s8,24(sp)
a0805b44:	03a0f021 	move	s8,sp
a0805b48:	24020004 	li	v0,4
a0805b4c:	afc20014 	sw	v0,20(s8)
a0805b50:	3c02a081 	lui	v0,0xa081
a0805b54:	8c428500 	lw	v0,-31488(v0)
a0805b58:	14400008 	bnez	v0,a0805b7c <lock2_task2+0x44>
a0805b5c:	00000000 	nop
a0805b60:	3c02a081 	lui	v0,0xa081
a0805b64:	24448508 	addiu	a0,v0,-31480
a0805b68:	0c201332 	jal	a0804cc8 <mthread_mutex_init>
a0805b6c:	00000000 	nop
a0805b70:	3c03a081 	lui	v1,0xa081
a0805b74:	24020001 	li	v0,1
a0805b78:	ac628500 	sw	v0,-31488(v1)
a0805b7c:	24040001 	li	a0,1
a0805b80:	8fc50014 	lw	a1,20(s8)
a0805b84:	0c2013dc 	jal	a0804f70 <sys_move_cursor>
a0805b88:	00000000 	nop
a0805b8c:	3c02a080 	lui	v0,0xa080
a0805b90:	24445fc0 	addiu	a0,v0,24512
a0805b94:	3c02a080 	lui	v0,0xa080
a0805b98:	24456550 	addiu	a1,v0,25936
a0805b9c:	0c2011c4 	jal	a0804710 <printf>
a0805ba0:	00000000 	nop
a0805ba4:	24040001 	li	a0,1
a0805ba8:	8fc50014 	lw	a1,20(s8)
a0805bac:	0c2013dc 	jal	a0804f70 <sys_move_cursor>
a0805bb0:	00000000 	nop
a0805bb4:	3c02a080 	lui	v0,0xa080
a0805bb8:	24445fc4 	addiu	a0,v0,24516
a0805bbc:	0c2011c4 	jal	a0804710 <printf>
a0805bc0:	00000000 	nop
a0805bc4:	3c02a081 	lui	v0,0xa081
a0805bc8:	24448508 	addiu	a0,v0,-31480
a0805bcc:	0c20136a 	jal	a0804da8 <mthread_mutex_lock>
a0805bd0:	00000000 	nop
a0805bd4:	afc00010 	sw	zero,16(s8)
a0805bd8:	08201704 	j	a0805c10 <lock2_task2+0xd8>
a0805bdc:	00000000 	nop
a0805be0:	24040001 	li	a0,1
a0805be4:	8fc50014 	lw	a1,20(s8)
a0805be8:	0c2013dc 	jal	a0804f70 <sys_move_cursor>
a0805bec:	00000000 	nop
a0805bf0:	3c02a080 	lui	v0,0xa080
a0805bf4:	24445fe4 	addiu	a0,v0,24548
a0805bf8:	8fc50010 	lw	a1,16(s8)
a0805bfc:	0c2011c4 	jal	a0804710 <printf>
a0805c00:	00000000 	nop
a0805c04:	8fc20010 	lw	v0,16(s8)
a0805c08:	24420001 	addiu	v0,v0,1
a0805c0c:	afc20010 	sw	v0,16(s8)
a0805c10:	8fc20010 	lw	v0,16(s8)
a0805c14:	284203e8 	slti	v0,v0,1000
a0805c18:	1440fff1 	bnez	v0,a0805be0 <lock2_task2+0xa8>
a0805c1c:	00000000 	nop
a0805c20:	24040001 	li	a0,1
a0805c24:	8fc50014 	lw	a1,20(s8)
a0805c28:	0c2013dc 	jal	a0804f70 <sys_move_cursor>
a0805c2c:	00000000 	nop
a0805c30:	3c02a080 	lui	v0,0xa080
a0805c34:	24445fc0 	addiu	a0,v0,24512
a0805c38:	3c02a080 	lui	v0,0xa080
a0805c3c:	24456550 	addiu	a1,v0,25936
a0805c40:	0c2011c4 	jal	a0804710 <printf>
a0805c44:	00000000 	nop
a0805c48:	24040001 	li	a0,1
a0805c4c:	8fc50014 	lw	a1,20(s8)
a0805c50:	0c2013dc 	jal	a0804f70 <sys_move_cursor>
a0805c54:	00000000 	nop
a0805c58:	3c02a080 	lui	v0,0xa080
a0805c5c:	24446014 	addiu	a0,v0,24596
a0805c60:	0c2011c4 	jal	a0804710 <printf>
a0805c64:	00000000 	nop
a0805c68:	3c02a081 	lui	v0,0xa081
a0805c6c:	24448508 	addiu	a0,v0,-31480
a0805c70:	0c20138a 	jal	a0804e28 <mthread_mutex_unlock>
a0805c74:	00000000 	nop
a0805c78:	082016d4 	j	a0805b50 <lock2_task2+0x18>
a0805c7c:	00000000 	nop
a0805c80:	495b203e 	0x495b203e
a0805c84:	5d54494e 	0x5d54494e
a0805c88:	42435020 	c0	0x435020
a0805c8c:	696e6920 	ldl	t6,26912(t3)
a0805c90:	6c616974 	ldr	at,26996(v1)
a0805c94:	74617a69 	jalx	a185e9a4 <_gp+0x1050424>
a0805c98:	206e6f69 	addi	t6,v1,28521
a0805c9c:	63637573 	daddi	v1,k1,30067
a0805ca0:	65646565 	daddiu	a0,t3,25957
a0805ca4:	000a2e64 	0xa2e64
a0805ca8:	495b203e 	0x495b203e
a0805cac:	5d54494e 	0x5d54494e
a0805cb0:	746e4920 	jalx	a1b92480 <_gp+0x1383f00>
a0805cb4:	75727265 	jalx	a5c9c994 <_gp+0x548e414>
a0805cb8:	70207470 	0x70207470
a0805cbc:	65636f72 	daddiu	v1,t3,28530
a0805cc0:	6e697373 	ldr	t1,29555(s3)
a0805cc4:	6e692067 	ldr	t1,8295(s3)
a0805cc8:	61697469 	daddi	t1,t3,29801
a0805ccc:	617a696c 	daddi	k0,t3,26988
a0805cd0:	6e6f6974 	ldr	t7,26996(s3)
a0805cd4:	63757320 	daddi	s5,k1,29472
a0805cd8:	64656563 	daddiu	a1,v1,25955
a0805cdc:	0a2e6465 	j	a8b99194 <_gp+0x838ac14>
a0805ce0:	00000000 	nop
a0805ce4:	495b203e 	0x495b203e
a0805ce8:	5d54494e 	0x5d54494e
a0805cec:	74754620 	jalx	a1d51880 <_gp+0x1543300>
a0805cf0:	69207865 	ldl	zero,30821(t1)
a0805cf4:	6974696e 	ldl	s4,26990(t3)
a0805cf8:	7a696c61 	0x7a696c61
a0805cfc:	6f697461 	ldr	t1,29793(k1)
a0805d00:	7573206e 	jalx	a5cc81b8 <_gp+0x54b9c38>
a0805d04:	65656363 	daddiu	a1,t3,25443
a0805d08:	2e646564 	sltiu	a0,s3,25956
a0805d0c:	0000000a 	0xa
a0805d10:	495b203e 	0x495b203e
a0805d14:	5d54494e 	0x5d54494e
a0805d18:	73795320 	0x73795320
a0805d1c:	206d6574 	addi	t5,v1,25972
a0805d20:	6c6c6163 	ldr	t4,24931(v1)
a0805d24:	696e6920 	ldl	t6,26912(t3)
a0805d28:	6c616974 	ldr	at,26996(v1)
a0805d2c:	64657a69 	daddiu	a1,v1,31337
a0805d30:	63757320 	daddi	s5,k1,29472
a0805d34:	73736563 	0x73736563
a0805d38:	6c6c7566 	ldr	t4,30054(v1)
a0805d3c:	000a2e79 	0xa2e79
a0805d40:	495b203e 	0x495b203e
a0805d44:	5d54494e 	0x5d54494e
a0805d48:	52435320 	beql	s2,v1,a081a9cc <_gp+0xc44c>
a0805d4c:	204e4545 	addi	t6,v0,17733
a0805d50:	74696e69 	jalx	a1a5b9a4 <_gp+0x124d424>
a0805d54:	696c6169 	ldl	t4,24937(t3)
a0805d58:	6974617a 	ldl	s4,24954(t3)
a0805d5c:	73206e6f 	0x73206e6f
a0805d60:	65636375 	daddiu	v1,t3,25461
a0805d64:	64656465 	daddiu	a1,v1,25701
a0805d68:	00000a2e 	0xa2e
a0805d6c:	00000000 	nop
a0805d70:	255b6325 	addiu	k1,t2,25381
a0805d74:	64253b64 	daddiu	a1,at,15204
a0805d78:	00000048 	0x48
a0805d7c:	325b6325 	andi	k1,s2,0x6325
a0805d80:	0000004a 	0x4a
a0805d84:	3f5b6325 	0x3f5b6325
a0805d88:	006c3532 	tlt	v1,t4,0xd4
a0805d8c:	00000000 	nop

a0805d90 <__FUNCTION__.1057>:
a0805d90:	65747566 61775f78 00007469 656b2f2e     futex_wait.../ke
a0805da0:	6c656e72 636f6c2f 676e696b 7475662f     rnel/locking/fut
a0805db0:	632e7865 00000000 65737341 6f697472     ex.c....Assertio
a0805dc0:	6166206e 64656c69 20746120 69207325     n failed at %s i
a0805dd0:	7325206e 0a64253a 0000000d 00000000     n %s:%d.........
a0805de0:	545b203e 5d4b5341 69685420 61742073     > [TASK] This ta
a0805df0:	69206b73 6f742073 73657420 63732074     sk is to test sc
a0805e00:	75646568 2e72656c 64252820 00000a29     heduler. (%d)...
a0805e10:	545b203e 5d4b5341 69685420 61742073     > [TASK] This ta
a0805e20:	69206b73 6f742073 73657420 63732074     sk is to test sc
a0805e30:	75646568 2e72656c 64252820 00000029     heduler. (%d)...
a0805e40:	00007325 00000000 00000000 00000000     %s..............
a0805e50:	00007325 545b203e 5d4b5341 70704120     %s..> [TASK] App
a0805e60:	6e69796c 6f662067 20612072 6b636f6c     lying for a lock
a0805e70:	00000a2e 545b203e 5d4b5341 73614820     ....> [TASK] Has
a0805e80:	71636120 65726975 6f6c2064 61206b63      acquired lock a
a0805e90:	7220646e 696e6e75 282e676e 0a296425     nd running.(%d).
a0805ea0:	00000000 545b203e 5d4b5341 73614820     ....> [TASK] Has
a0805eb0:	71636120 65726975 6f6c2064 61206b63      acquired lock a
a0805ec0:	6520646e 65746978 000a2e64 00000000     nd exited.......
a0805ed0:	545b203e 5d4b5341 69685420 61742073     > [TASK] This ta
a0805ee0:	69206b73 6f742073 73657420 63732074     sk is to test sc
a0805ef0:	75646568 2e72656c 64252820 00000029     heduler. (%d)...
a0805f00:	00007325 00000000 00000000 00000000     %s..............
a0805f10:	545b203e 5d4b5341 69685420 61742073     > [TASK] This ta
a0805f20:	69206b73 6f742073 73657420 6c732074     sk is to test sl
a0805f30:	28706565 28202e29 0a296425 00000000     eep(). (%d).....
a0805f40:	545b203e 5d4b5341 69685420 61742073     > [TASK] This ta
a0805f50:	69206b73 6c732073 69706565 202c676e     sk is sleeping, 
a0805f60:	65656c73 69742070 6920656d 64252073     sleep time is %d
a0805f70:	00000a2e 00007325 00000000 00000000     ....%s..........
a0805f80:	545b203e 5d4b5341 69685420 73692073     > [TASK] This is
a0805f90:	74206120 61657268 6f742064 6d697420      a thread to tim
a0805fa0:	21676e69 75252820 2075252f 6f636573     ing! (%u/%u seco
a0805fb0:	2973646e 00000a2e 00000000 00000000     nds)............
a0805fc0:	00007325 545b203e 5d4b5341 70704120     %s..> [TASK] App
a0805fd0:	6e69796c 6f662067 20612072 6b636f6c     lying for a lock
a0805fe0:	00000a2e 545b203e 5d4b5341 73614820     ....> [TASK] Has
a0805ff0:	71636120 65726975 6f6c2064 61206b63      acquired lock a
a0806000:	7220646e 696e6e75 282e676e 0a296425     nd running.(%d).
a0806010:	00000000 545b203e 5d4b5341 73614820     ....> [TASK] Has
a0806020:	71636120 65726975 6f6c2064 61206b63      acquired lock a
a0806030:	6520646e 65746978 000a2e64 00000000     nd exited.......
a0806040:	fffffffe 00000000 00000000 00000000     ................
	...
